ARM GAS  C:\Users\SZYMAN~1.RAJ\AppData\Local\Temp\ccUaWHFB.s 			page 1


   1              		.cpu cortex-m4
   2              		.eabi_attribute 27, 1
   3              		.eabi_attribute 28, 1
   4              		.eabi_attribute 23, 1
   5              		.eabi_attribute 24, 1
   6              		.eabi_attribute 25, 1
   7              		.eabi_attribute 26, 1
   8              		.eabi_attribute 30, 4
   9              		.eabi_attribute 34, 1
  10              		.eabi_attribute 18, 4
  11              		.file	"osapi.c"
  12              		.section	.text.local_timer_handler,"ax",%progbits
  13              		.align	1
  14              		.syntax unified
  15              		.thumb
  16              		.thumb_func
  17              		.fpu fpv4-sp-d16
  18              		.type	local_timer_handler, %function
  19              	local_timer_handler:
  20              		@ args = 0, pretend = 0, frame = 0
  21              		@ frame_needed = 0, uses_anonymous_args = 0
  22              		@ link register save eliminated.
  23              		.syntax unified
  24              	@ 345 "CMSIS/include/cmsis_gcc.h" 1
  25 0000 EFF31081 		MRS r1, primask
  26              	@ 0 "" 2
  27              	@ 128 "CMSIS/include/cmsis_gcc.h" 1
  28 0004 72B6     		cpsid i
  29              	@ 0 "" 2
  30              		.thumb
  31              		.syntax unified
  32 0006 084B     		ldr	r3, .L4
  33 0008 0848     		ldr	r0, .L4+4
  34 000a 5A68     		ldr	r2, [r3, #4]
  35 000c 02F57A72 		add	r2, r2, #1000
  36 0010 8242     		cmp	r2, r0
  37 0012 83BF     		ittte	hi
  38 0014 0022     		movhi	r2, #0
  39 0016 5A60     		strhi	r2, [r3, #4]
  40 0018 1A68     		ldrhi	r2, [r3]
  41 001a 5A60     		strls	r2, [r3, #4]
  42 001c 84BF     		itt	hi
  43 001e 0132     		addhi	r2, r2, #1
  44 0020 1A60     		strhi	r2, [r3]
  45              		.syntax unified
  46              	@ 373 "CMSIS/include/cmsis_gcc.h" 1
  47 0022 81F31088 		MSR primask, r1
  48              	@ 0 "" 2
  49              		.thumb
  50              		.syntax unified
  51 0026 7047     		bx	lr
  52              	.L5:
  53              		.align	2
  54              	.L4:
  55 0028 00000000 		.word	.LANCHOR0
  56 002c 3F420F00 		.word	999999
  57              		.size	local_timer_handler, .-local_timer_handler
ARM GAS  C:\Users\SZYMAN~1.RAJ\AppData\Local\Temp\ccUaWHFB.s 			page 2


  58              		.section	.text.timer_handler,"ax",%progbits
  59              		.align	1
  60              		.syntax unified
  61              		.thumb
  62              		.thumb_func
  63              		.fpu fpv4-sp-d16
  64              		.type	timer_handler, %function
  65              	timer_handler:
  66              		@ args = 0, pretend = 0, frame = 0
  67              		@ frame_needed = 0, uses_anonymous_args = 0
  68              		@ link register save eliminated.
  69 0000 034B     		ldr	r3, .L7
  70 0002 0448     		ldr	r0, .L7+4
  71 0004 DB68     		ldr	r3, [r3, #12]
  72 0006 181A     		subs	r0, r3, r0
  73 0008 8011     		asrs	r0, r0, #6
  74 000a DB6B     		ldr	r3, [r3, #60]
  75 000c 8009     		lsrs	r0, r0, #6
  76 000e 1847     		bx	r3	@ indirect register sibling call
  77              	.L8:
  78              		.align	2
  79              	.L7:
  80 0010 00000000 		.word	WAIT
  81 0014 00000000 		.word	.LANCHOR1
  82              		.size	timer_handler, .-timer_handler
  83              		.section	.text.task_handler,"ax",%progbits
  84              		.align	1
  85              		.syntax unified
  86              		.thumb
  87              		.thumb_func
  88              		.fpu fpv4-sp-d16
  89              		.type	task_handler, %function
  90              	task_handler:
  91              		@ args = 0, pretend = 0, frame = 0
  92              		@ frame_needed = 0, uses_anonymous_args = 0
  93 0000 08B5     		push	{r3, lr}
  94 0002 034B     		ldr	r3, .L10
  95 0004 1B68     		ldr	r3, [r3]
  96 0006 1B6E     		ldr	r3, [r3, #96]
  97 0008 9847     		blx	r3
  98 000a FFF7FEFF 		bl	tsk_stop
  99              	.L11:
 100 000e 00BF     		.align	2
 101              	.L10:
 102 0010 00000000 		.word	System
 103              		.size	task_handler, .-task_handler
 104              		.section	.text.OS_API_Init,"ax",%progbits
 105              		.align	1
 106              		.global	OS_API_Init
 107              		.syntax unified
 108              		.thumb
 109              		.thumb_func
 110              		.fpu fpv4-sp-d16
 111              		.type	OS_API_Init, %function
 112              	OS_API_Init:
 113              		@ args = 0, pretend = 0, frame = 0
 114              		@ frame_needed = 0, uses_anonymous_args = 0
ARM GAS  C:\Users\SZYMAN~1.RAJ\AppData\Local\Temp\ccUaWHFB.s 			page 3


 115 0000 08B5     		push	{r3, lr}
 116 0002 4FF47A72 		mov	r2, #1000
 117 0006 034B     		ldr	r3, .L13
 118 0008 0348     		ldr	r0, .L13+4
 119 000a 1146     		mov	r1, r2
 120 000c FFF7FEFF 		bl	tmr_startFrom
 121 0010 0020     		movs	r0, #0
 122 0012 08BD     		pop	{r3, pc}
 123              	.L14:
 124              		.align	2
 125              	.L13:
 126 0014 00000000 		.word	local_timer_handler
 127 0018 00000000 		.word	.LANCHOR2
 128              		.size	OS_API_Init, .-OS_API_Init
 129              		.section	.text.OS_printf,"ax",%progbits
 130              		.align	1
 131              		.global	OS_printf
 132              		.syntax unified
 133              		.thumb
 134              		.thumb_func
 135              		.fpu fpv4-sp-d16
 136              		.type	OS_printf, %function
 137              	OS_printf:
 138              		@ args = 4, pretend = 16, frame = 8
 139              		@ frame_needed = 0, uses_anonymous_args = 1
 140 0000 0FB4     		push	{r0, r1, r2, r3}
 141 0002 074B     		ldr	r3, .L20
 142 0004 1B68     		ldr	r3, [r3]
 143 0006 07B5     		push	{r0, r1, r2, lr}
 144 0008 23B1     		cbz	r3, .L15
 145 000a 05A9     		add	r1, sp, #20
 146 000c 0498     		ldr	r0, [sp, #16]
 147 000e 0191     		str	r1, [sp, #4]
 148 0010 FFF7FEFF 		bl	printf
 149              	.L15:
 150 0014 03B0     		add	sp, sp, #12
 151              		@ sp needed
 152 0016 5DF804EB 		ldr	lr, [sp], #4
 153 001a 04B0     		add	sp, sp, #16
 154 001c 7047     		bx	lr
 155              	.L21:
 156 001e 00BF     		.align	2
 157              	.L20:
 158 0020 00000000 		.word	.LANCHOR3
 159              		.size	OS_printf, .-OS_printf
 160              		.section	.text.OS_printf_disable,"ax",%progbits
 161              		.align	1
 162              		.global	OS_printf_disable
 163              		.syntax unified
 164              		.thumb
 165              		.thumb_func
 166              		.fpu fpv4-sp-d16
 167              		.type	OS_printf_disable, %function
 168              	OS_printf_disable:
 169              		@ args = 0, pretend = 0, frame = 0
 170              		@ frame_needed = 0, uses_anonymous_args = 0
 171              		@ link register save eliminated.
ARM GAS  C:\Users\SZYMAN~1.RAJ\AppData\Local\Temp\ccUaWHFB.s 			page 4


 172 0000 014B     		ldr	r3, .L23
 173 0002 0022     		movs	r2, #0
 174 0004 1A60     		str	r2, [r3]
 175 0006 7047     		bx	lr
 176              	.L24:
 177              		.align	2
 178              	.L23:
 179 0008 00000000 		.word	.LANCHOR3
 180              		.size	OS_printf_disable, .-OS_printf_disable
 181              		.section	.text.OS_printf_enable,"ax",%progbits
 182              		.align	1
 183              		.global	OS_printf_enable
 184              		.syntax unified
 185              		.thumb
 186              		.thumb_func
 187              		.fpu fpv4-sp-d16
 188              		.type	OS_printf_enable, %function
 189              	OS_printf_enable:
 190              		@ args = 0, pretend = 0, frame = 0
 191              		@ frame_needed = 0, uses_anonymous_args = 0
 192              		@ link register save eliminated.
 193 0000 014B     		ldr	r3, .L26
 194 0002 0122     		movs	r2, #1
 195 0004 1A60     		str	r2, [r3]
 196 0006 7047     		bx	lr
 197              	.L27:
 198              		.align	2
 199              	.L26:
 200 0008 00000000 		.word	.LANCHOR3
 201              		.size	OS_printf_enable, .-OS_printf_enable
 202              		.section	.text.OS_Milli2Ticks,"ax",%progbits
 203              		.align	1
 204              		.global	OS_Milli2Ticks
 205              		.syntax unified
 206              		.thumb
 207              		.thumb_func
 208              		.fpu fpv4-sp-d16
 209              		.type	OS_Milli2Ticks, %function
 210              	OS_Milli2Ticks:
 211              		@ args = 0, pretend = 0, frame = 0
 212              		@ frame_needed = 0, uses_anonymous_args = 0
 213              		@ link register save eliminated.
 214 0000 034B     		ldr	r3, .L29
 215 0002 5843     		muls	r0, r3, r0
 216 0004 4FF47A73 		mov	r3, #1000
 217 0008 B0FBF3F0 		udiv	r0, r0, r3
 218 000c 7047     		bx	lr
 219              	.L30:
 220 000e 00BF     		.align	2
 221              	.L29:
 222 0010 40420F00 		.word	1000000
 223              		.size	OS_Milli2Ticks, .-OS_Milli2Ticks
 224              		.section	.text.OS_Tick2Micros,"ax",%progbits
 225              		.align	1
 226              		.global	OS_Tick2Micros
 227              		.syntax unified
 228              		.thumb
ARM GAS  C:\Users\SZYMAN~1.RAJ\AppData\Local\Temp\ccUaWHFB.s 			page 5


 229              		.thumb_func
 230              		.fpu fpv4-sp-d16
 231              		.type	OS_Tick2Micros, %function
 232              	OS_Tick2Micros:
 233              		@ args = 0, pretend = 0, frame = 0
 234              		@ frame_needed = 0, uses_anonymous_args = 0
 235              		@ link register save eliminated.
 236 0000 0120     		movs	r0, #1
 237 0002 7047     		bx	lr
 238              		.size	OS_Tick2Micros, .-OS_Tick2Micros
 239              		.section	.text.OS_GetLocalTime,"ax",%progbits
 240              		.align	1
 241              		.global	OS_GetLocalTime
 242              		.syntax unified
 243              		.thumb
 244              		.thumb_func
 245              		.fpu fpv4-sp-d16
 246              		.type	OS_GetLocalTime, %function
 247              	OS_GetLocalTime:
 248              		@ args = 0, pretend = 0, frame = 0
 249              		@ frame_needed = 0, uses_anonymous_args = 0
 250              		@ link register save eliminated.
 251 0000 0246     		mov	r2, r0
 252              		.syntax unified
 253              	@ 345 "CMSIS/include/cmsis_gcc.h" 1
 254 0002 EFF31083 		MRS r3, primask
 255              	@ 0 "" 2
 256              	@ 128 "CMSIS/include/cmsis_gcc.h" 1
 257 0006 72B6     		cpsid i
 258              	@ 0 "" 2
 259              		.thumb
 260              		.syntax unified
 261 0008 0349     		ldr	r1, .L33
 262 000a 03C9     		ldm	r1, {r0, r1}
 263 000c 82E80300 		stm	r2, {r0, r1}
 264              		.syntax unified
 265              	@ 373 "CMSIS/include/cmsis_gcc.h" 1
 266 0010 83F31088 		MSR primask, r3
 267              	@ 0 "" 2
 268              		.thumb
 269              		.syntax unified
 270 0014 0020     		movs	r0, #0
 271 0016 7047     		bx	lr
 272              	.L34:
 273              		.align	2
 274              	.L33:
 275 0018 00000000 		.word	.LANCHOR0
 276              		.size	OS_GetLocalTime, .-OS_GetLocalTime
 277              		.section	.text.OS_SetLocalTime,"ax",%progbits
 278              		.align	1
 279              		.global	OS_SetLocalTime
 280              		.syntax unified
 281              		.thumb
 282              		.thumb_func
 283              		.fpu fpv4-sp-d16
 284              		.type	OS_SetLocalTime, %function
 285              	OS_SetLocalTime:
ARM GAS  C:\Users\SZYMAN~1.RAJ\AppData\Local\Temp\ccUaWHFB.s 			page 6


 286              		@ args = 0, pretend = 0, frame = 0
 287              		@ frame_needed = 0, uses_anonymous_args = 0
 288              		@ link register save eliminated.
 289              		.syntax unified
 290              	@ 345 "CMSIS/include/cmsis_gcc.h" 1
 291 0000 EFF31083 		MRS r3, primask
 292              	@ 0 "" 2
 293              	@ 128 "CMSIS/include/cmsis_gcc.h" 1
 294 0004 72B6     		cpsid i
 295              	@ 0 "" 2
 296              		.thumb
 297              		.syntax unified
 298 0006 03C8     		ldm	r0, {r0, r1}
 299 0008 034A     		ldr	r2, .L36
 300 000a 82E80300 		stm	r2, {r0, r1}
 301              		.syntax unified
 302              	@ 373 "CMSIS/include/cmsis_gcc.h" 1
 303 000e 83F31088 		MSR primask, r3
 304              	@ 0 "" 2
 305              		.thumb
 306              		.syntax unified
 307 0012 0020     		movs	r0, #0
 308 0014 7047     		bx	lr
 309              	.L37:
 310 0016 00BF     		.align	2
 311              	.L36:
 312 0018 00000000 		.word	.LANCHOR0
 313              		.size	OS_SetLocalTime, .-OS_SetLocalTime
 314              		.section	.text.OS_QueueDelete,"ax",%progbits
 315              		.align	1
 316              		.global	OS_QueueDelete
 317              		.syntax unified
 318              		.thumb
 319              		.thumb_func
 320              		.fpu fpv4-sp-d16
 321              		.type	OS_QueueDelete, %function
 322              	OS_QueueDelete:
 323              		@ args = 0, pretend = 0, frame = 0
 324              		@ frame_needed = 0, uses_anonymous_args = 0
 325 0000 38B5     		push	{r3, r4, r5, lr}
 326              		.syntax unified
 327              	@ 345 "CMSIS/include/cmsis_gcc.h" 1
 328 0002 EFF31085 		MRS r5, primask
 329              	@ 0 "" 2
 330              	@ 128 "CMSIS/include/cmsis_gcc.h" 1
 331 0006 72B6     		cpsid i
 332              	@ 0 "" 2
 333              		.thumb
 334              		.syntax unified
 335 0008 3F28     		cmp	r0, #63
 336 000a 10D8     		bhi	.L40
 337 000c 0B4C     		ldr	r4, .L42
 338 000e 3823     		movs	r3, #56
 339 0010 03FB0044 		mla	r4, r3, r0, r4
 340 0014 636B     		ldr	r3, [r4, #52]
 341 0016 6BB1     		cbz	r3, .L41
 342 0018 2046     		mov	r0, r4
ARM GAS  C:\Users\SZYMAN~1.RAJ\AppData\Local\Temp\ccUaWHFB.s 			page 7


 343 001a FFF7FEFF 		bl	box_kill
 344 001e 6069     		ldr	r0, [r4, #20]
 345 0020 FFF7FEFF 		bl	core_sys_free
 346 0024 0020     		movs	r0, #0
 347 0026 6063     		str	r0, [r4, #52]
 348              	.L39:
 349              		.syntax unified
 350              	@ 373 "CMSIS/include/cmsis_gcc.h" 1
 351 0028 85F31088 		MSR primask, r5
 352              	@ 0 "" 2
 353              		.thumb
 354              		.syntax unified
 355 002c 38BD     		pop	{r3, r4, r5, pc}
 356              	.L40:
 357 002e 6FF00F00 		mvn	r0, #15
 358 0032 F9E7     		b	.L39
 359              	.L41:
 360 0034 6FF00100 		mvn	r0, #1
 361 0038 F6E7     		b	.L39
 362              	.L43:
 363 003a 00BF     		.align	2
 364              	.L42:
 365 003c 00000000 		.word	.LANCHOR4
 366              		.size	OS_QueueDelete, .-OS_QueueDelete
 367              		.section	.text.OS_QueueGet,"ax",%progbits
 368              		.align	1
 369              		.global	OS_QueueGet
 370              		.syntax unified
 371              		.thumb
 372              		.thumb_func
 373              		.fpu fpv4-sp-d16
 374              		.type	OS_QueueGet, %function
 375              	OS_QueueGet:
 376              		@ args = 4, pretend = 0, frame = 0
 377              		@ frame_needed = 0, uses_anonymous_args = 0
 378 0000 2DE9F041 		push	{r4, r5, r6, r7, r8, lr}
 379 0004 9846     		mov	r8, r3
 380 0006 069B     		ldr	r3, [sp, #24]
 381              		.syntax unified
 382              	@ 345 "CMSIS/include/cmsis_gcc.h" 1
 383 0008 EFF31087 		MRS r7, primask
 384              	@ 0 "" 2
 385              	@ 128 "CMSIS/include/cmsis_gcc.h" 1
 386 000c 72B6     		cpsid i
 387              	@ 0 "" 2
 388              		.thumb
 389              		.syntax unified
 390 000e 3F28     		cmp	r0, #63
 391 0010 31D8     		bhi	.L49
 392 0012 1D4D     		ldr	r5, .L57
 393 0014 3826     		movs	r6, #56
 394 0016 06FB0056 		mla	r6, r6, r0, r5
 395 001a 746B     		ldr	r4, [r6, #52]
 396 001c 74B3     		cbz	r4, .L50
 397 001e B469     		ldr	r4, [r6, #24]
 398 0020 9442     		cmp	r4, r2
 399 0022 2ED8     		bhi	.L51
ARM GAS  C:\Users\SZYMAN~1.RAJ\AppData\Local\Temp\ccUaWHFB.s 			page 8


 400 0024 A3B1     		cbz	r3, .L52
 401 0026 5A1C     		adds	r2, r3, #1
 402 0028 15D0     		beq	.L53
 403 002a 184C     		ldr	r4, .L57+4
 404 002c 5C43     		muls	r4, r3, r4
 405 002e 4FF47A73 		mov	r3, #1000
 406 0032 B4FBF3F4 		udiv	r4, r4, r3
 407              	.L46:
 408 0036 3823     		movs	r3, #56
 409 0038 03FB0055 		mla	r5, r3, r0, r5
 410 003c 2246     		mov	r2, r4
 411 003e 2846     		mov	r0, r5
 412 0040 FFF7FEFF 		bl	box_waitFor
 413 0044 48B1     		cbz	r0, .L47
 414 0046 831C     		adds	r3, r0, #2
 415 0048 0ED0     		beq	.L48
 416 004a 4FF0FF30 		mov	r0, #-1
 417 004e 07E0     		b	.L45
 418              	.L52:
 419 0050 4FF0FF34 		mov	r4, #-1
 420 0054 EFE7     		b	.L46
 421              	.L53:
 422 0056 0024     		movs	r4, #0
 423 0058 EDE7     		b	.L46
 424              	.L47:
 425 005a AB69     		ldr	r3, [r5, #24]
 426 005c C8F80030 		str	r3, [r8]
 427              	.L45:
 428              		.syntax unified
 429              	@ 373 "CMSIS/include/cmsis_gcc.h" 1
 430 0060 87F31088 		MSR primask, r7
 431              	@ 0 "" 2
 432              		.thumb
 433              		.syntax unified
 434 0064 BDE8F081 		pop	{r4, r5, r6, r7, r8, pc}
 435              	.L48:
 436 0068 002C     		cmp	r4, #0
 437 006a 14BF     		ite	ne
 438 006c 6FF00900 		mvnne	r0, #9
 439 0070 6FF00700 		mvneq	r0, #7
 440 0074 F4E7     		b	.L45
 441              	.L49:
 442 0076 6FF00F00 		mvn	r0, #15
 443 007a F1E7     		b	.L45
 444              	.L50:
 445 007c 6FF00100 		mvn	r0, #1
 446 0080 EEE7     		b	.L45
 447              	.L51:
 448 0082 6FF00A00 		mvn	r0, #10
 449 0086 EBE7     		b	.L45
 450              	.L58:
 451              		.align	2
 452              	.L57:
 453 0088 00000000 		.word	.LANCHOR4
 454 008c 40420F00 		.word	1000000
 455              		.size	OS_QueueGet, .-OS_QueueGet
 456              		.section	.text.OS_QueuePut,"ax",%progbits
ARM GAS  C:\Users\SZYMAN~1.RAJ\AppData\Local\Temp\ccUaWHFB.s 			page 9


 457              		.align	1
 458              		.global	OS_QueuePut
 459              		.syntax unified
 460              		.thumb
 461              		.thumb_func
 462              		.fpu fpv4-sp-d16
 463              		.type	OS_QueuePut, %function
 464              	OS_QueuePut:
 465              		@ args = 0, pretend = 0, frame = 0
 466              		@ frame_needed = 0, uses_anonymous_args = 0
 467 0000 38B5     		push	{r3, r4, r5, lr}
 468              		.syntax unified
 469              	@ 345 "CMSIS/include/cmsis_gcc.h" 1
 470 0002 EFF31084 		MRS r4, primask
 471              	@ 0 "" 2
 472              	@ 128 "CMSIS/include/cmsis_gcc.h" 1
 473 0006 72B6     		cpsid i
 474              	@ 0 "" 2
 475              		.thumb
 476              		.syntax unified
 477 0008 3F28     		cmp	r0, #63
 478 000a 15D8     		bhi	.L63
 479 000c 0F4B     		ldr	r3, .L67
 480 000e 3825     		movs	r5, #56
 481 0010 05FB0030 		mla	r0, r5, r0, r3
 482 0014 436B     		ldr	r3, [r0, #52]
 483 0016 93B1     		cbz	r3, .L64
 484 0018 8369     		ldr	r3, [r0, #24]
 485 001a 9342     		cmp	r3, r2
 486 001c 12D3     		bcc	.L65
 487 001e 0022     		movs	r2, #0
 488 0020 FFF7FEFF 		bl	box_sendFor
 489 0024 28B1     		cbz	r0, .L60
 490 0026 831C     		adds	r3, r0, #2
 491 0028 0CBF     		ite	eq
 492 002a 6FF00800 		mvneq	r0, #8
 493 002e 4FF0FF30 		movne	r0, #-1
 494              	.L60:
 495              		.syntax unified
 496              	@ 373 "CMSIS/include/cmsis_gcc.h" 1
 497 0032 84F31088 		MSR primask, r4
 498              	@ 0 "" 2
 499              		.thumb
 500              		.syntax unified
 501 0036 38BD     		pop	{r3, r4, r5, pc}
 502              	.L63:
 503 0038 6FF00F00 		mvn	r0, #15
 504 003c F9E7     		b	.L60
 505              	.L64:
 506 003e 6FF00100 		mvn	r0, #1
 507 0042 F6E7     		b	.L60
 508              	.L65:
 509 0044 6FF00A00 		mvn	r0, #10
 510 0048 F3E7     		b	.L60
 511              	.L68:
 512 004a 00BF     		.align	2
 513              	.L67:
ARM GAS  C:\Users\SZYMAN~1.RAJ\AppData\Local\Temp\ccUaWHFB.s 			page 10


 514 004c 00000000 		.word	.LANCHOR4
 515              		.size	OS_QueuePut, .-OS_QueuePut
 516              		.section	.text.OS_QueueGetIdByName,"ax",%progbits
 517              		.align	1
 518              		.global	OS_QueueGetIdByName
 519              		.syntax unified
 520              		.thumb
 521              		.thumb_func
 522              		.fpu fpv4-sp-d16
 523              		.type	OS_QueueGetIdByName, %function
 524              	OS_QueueGetIdByName:
 525              		@ args = 0, pretend = 0, frame = 0
 526              		@ frame_needed = 0, uses_anonymous_args = 0
 527 0000 2DE9F843 		push	{r3, r4, r5, r6, r7, r8, r9, lr}
 528 0004 0646     		mov	r6, r0
 529 0006 0F46     		mov	r7, r1
 530              		.syntax unified
 531              	@ 345 "CMSIS/include/cmsis_gcc.h" 1
 532 0008 EFF31085 		MRS r5, primask
 533              	@ 0 "" 2
 534              	@ 128 "CMSIS/include/cmsis_gcc.h" 1
 535 000c 72B6     		cpsid i
 536              	@ 0 "" 2
 537              		.thumb
 538              		.syntax unified
 539 000e 30B3     		cbz	r0, .L75
 540 0010 29B3     		cbz	r1, .L75
 541 0012 0846     		mov	r0, r1
 542 0014 FFF7FEFF 		bl	strlen
 543 0018 1328     		cmp	r0, #19
 544 001a 23D8     		bhi	.L76
 545 001c 134C     		ldr	r4, .L82
 546 001e A146     		mov	r9, r4
 547 0020 04F56068 		add	r8, r4, #3584
 548              	.L73:
 549 0024 636B     		ldr	r3, [r4, #52]
 550 0026 2BB1     		cbz	r3, .L71
 551 0028 3946     		mov	r1, r7
 552 002a 04F11C00 		add	r0, r4, #28
 553 002e FFF7FEFF 		bl	strcmp
 554 0032 28B1     		cbz	r0, .L72
 555              	.L71:
 556 0034 3834     		adds	r4, r4, #56
 557 0036 4445     		cmp	r4, r8
 558 0038 F4D3     		bcc	.L73
 559              	.L77:
 560 003a 6FF01000 		mvn	r0, #16
 561 003e 0AE0     		b	.L70
 562              	.L72:
 563 0040 4445     		cmp	r4, r8
 564 0042 FAD2     		bcs	.L77
 565 0044 0A4B     		ldr	r3, .L82+4
 566 0046 A4EB0904 		sub	r4, r4, r9
 567 004a E410     		asrs	r4, r4, #3
 568 004c 5C43     		muls	r4, r3, r4
 569 004e 3823     		movs	r3, #56
 570 0050 B4FBF3F4 		udiv	r4, r4, r3
ARM GAS  C:\Users\SZYMAN~1.RAJ\AppData\Local\Temp\ccUaWHFB.s 			page 11


 571 0054 3460     		str	r4, [r6]
 572              	.L70:
 573              		.syntax unified
 574              	@ 373 "CMSIS/include/cmsis_gcc.h" 1
 575 0056 85F31088 		MSR primask, r5
 576              	@ 0 "" 2
 577              		.thumb
 578              		.syntax unified
 579 005a BDE8F883 		pop	{r3, r4, r5, r6, r7, r8, r9, pc}
 580              	.L75:
 581 005e 6FF00100 		mvn	r0, #1
 582 0062 F8E7     		b	.L70
 583              	.L76:
 584 0064 6FF00C00 		mvn	r0, #12
 585 0068 F5E7     		b	.L70
 586              	.L83:
 587 006a 00BF     		.align	2
 588              	.L82:
 589 006c 00000000 		.word	.LANCHOR4
 590 0070 B76DDBB6 		.word	-1227133513
 591              		.size	OS_QueueGetIdByName, .-OS_QueueGetIdByName
 592              		.section	.text.OS_QueueGetInfo,"ax",%progbits
 593              		.align	1
 594              		.global	OS_QueueGetInfo
 595              		.syntax unified
 596              		.thumb
 597              		.thumb_func
 598              		.fpu fpv4-sp-d16
 599              		.type	OS_QueueGetInfo, %function
 600              	OS_QueueGetInfo:
 601              		@ args = 0, pretend = 0, frame = 0
 602              		@ frame_needed = 0, uses_anonymous_args = 0
 603 0000 38B5     		push	{r3, r4, r5, lr}
 604 0002 0A46     		mov	r2, r1
 605              		.syntax unified
 606              	@ 345 "CMSIS/include/cmsis_gcc.h" 1
 607 0004 EFF31085 		MRS r5, primask
 608              	@ 0 "" 2
 609              	@ 128 "CMSIS/include/cmsis_gcc.h" 1
 610 0008 72B6     		cpsid i
 611              	@ 0 "" 2
 612              		.thumb
 613              		.syntax unified
 614 000a 3F28     		cmp	r0, #63
 615 000c 11D8     		bhi	.L86
 616 000e 99B1     		cbz	r1, .L88
 617 0010 3823     		movs	r3, #56
 618 0012 0B49     		ldr	r1, .L89
 619 0014 5843     		muls	r0, r3, r0
 620 0016 0C18     		adds	r4, r1, r0
 621 0018 636B     		ldr	r3, [r4, #52]
 622 001a 6BB1     		cbz	r3, .L88
 623 001c 1C30     		adds	r0, r0, #28
 624 001e 0144     		add	r1, r1, r0
 625 0020 1046     		mov	r0, r2
 626 0022 FFF7FEFF 		bl	strcpy
 627 0026 236B     		ldr	r3, [r4, #48]
ARM GAS  C:\Users\SZYMAN~1.RAJ\AppData\Local\Temp\ccUaWHFB.s 			page 12


 628 0028 4361     		str	r3, [r0, #20]
 629 002a 0020     		movs	r0, #0
 630              	.L85:
 631              		.syntax unified
 632              	@ 373 "CMSIS/include/cmsis_gcc.h" 1
 633 002c 85F31088 		MSR primask, r5
 634              	@ 0 "" 2
 635              		.thumb
 636              		.syntax unified
 637 0030 38BD     		pop	{r3, r4, r5, pc}
 638              	.L86:
 639 0032 6FF00F00 		mvn	r0, #15
 640 0036 F9E7     		b	.L85
 641              	.L88:
 642 0038 6FF00100 		mvn	r0, #1
 643 003c F6E7     		b	.L85
 644              	.L90:
 645 003e 00BF     		.align	2
 646              	.L89:
 647 0040 00000000 		.word	.LANCHOR4
 648              		.size	OS_QueueGetInfo, .-OS_QueueGetInfo
 649              		.section	.text.OS_BinSemDelete,"ax",%progbits
 650              		.align	1
 651              		.global	OS_BinSemDelete
 652              		.syntax unified
 653              		.thumb
 654              		.thumb_func
 655              		.fpu fpv4-sp-d16
 656              		.type	OS_BinSemDelete, %function
 657              	OS_BinSemDelete:
 658              		@ args = 0, pretend = 0, frame = 0
 659              		@ frame_needed = 0, uses_anonymous_args = 0
 660 0000 38B5     		push	{r3, r4, r5, lr}
 661              		.syntax unified
 662              	@ 345 "CMSIS/include/cmsis_gcc.h" 1
 663 0002 EFF31085 		MRS r5, primask
 664              	@ 0 "" 2
 665              	@ 128 "CMSIS/include/cmsis_gcc.h" 1
 666 0006 72B6     		cpsid i
 667              	@ 0 "" 2
 668              		.thumb
 669              		.syntax unified
 670 0008 1328     		cmp	r0, #19
 671 000a 0DD8     		bhi	.L93
 672 000c 094C     		ldr	r4, .L95
 673 000e 2823     		movs	r3, #40
 674 0010 03FB0044 		mla	r4, r3, r0, r4
 675 0014 636A     		ldr	r3, [r4, #36]
 676 0016 53B1     		cbz	r3, .L94
 677 0018 2046     		mov	r0, r4
 678 001a FFF7FEFF 		bl	sem_kill
 679 001e 0020     		movs	r0, #0
 680 0020 6062     		str	r0, [r4, #36]
 681              	.L92:
 682              		.syntax unified
 683              	@ 373 "CMSIS/include/cmsis_gcc.h" 1
 684 0022 85F31088 		MSR primask, r5
ARM GAS  C:\Users\SZYMAN~1.RAJ\AppData\Local\Temp\ccUaWHFB.s 			page 13


 685              	@ 0 "" 2
 686              		.thumb
 687              		.syntax unified
 688 0026 38BD     		pop	{r3, r4, r5, pc}
 689              	.L93:
 690 0028 6FF00F00 		mvn	r0, #15
 691 002c F9E7     		b	.L92
 692              	.L94:
 693 002e 6FF00100 		mvn	r0, #1
 694 0032 F6E7     		b	.L92
 695              	.L96:
 696              		.align	2
 697              	.L95:
 698 0034 00000000 		.word	.LANCHOR5
 699              		.size	OS_BinSemDelete, .-OS_BinSemDelete
 700              		.section	.text.OS_BinSemFlush,"ax",%progbits
 701              		.align	1
 702              		.global	OS_BinSemFlush
 703              		.syntax unified
 704              		.thumb
 705              		.thumb_func
 706              		.fpu fpv4-sp-d16
 707              		.type	OS_BinSemFlush, %function
 708              	OS_BinSemFlush:
 709              		@ args = 0, pretend = 0, frame = 0
 710              		@ frame_needed = 0, uses_anonymous_args = 0
 711 0000 10B5     		push	{r4, lr}
 712              		.syntax unified
 713              	@ 345 "CMSIS/include/cmsis_gcc.h" 1
 714 0002 EFF31084 		MRS r4, primask
 715              	@ 0 "" 2
 716              	@ 128 "CMSIS/include/cmsis_gcc.h" 1
 717 0006 72B6     		cpsid i
 718              	@ 0 "" 2
 719              		.thumb
 720              		.syntax unified
 721 0008 1328     		cmp	r0, #19
 722 000a 0BD8     		bhi	.L99
 723 000c 084B     		ldr	r3, .L101
 724 000e 2822     		movs	r2, #40
 725 0010 02FB0030 		mla	r0, r2, r0, r3
 726 0014 436A     		ldr	r3, [r0, #36]
 727 0016 43B1     		cbz	r3, .L100
 728 0018 FFF7FEFF 		bl	sem_kill
 729 001c 0020     		movs	r0, #0
 730              	.L98:
 731              		.syntax unified
 732              	@ 373 "CMSIS/include/cmsis_gcc.h" 1
 733 001e 84F31088 		MSR primask, r4
 734              	@ 0 "" 2
 735              		.thumb
 736              		.syntax unified
 737 0022 10BD     		pop	{r4, pc}
 738              	.L99:
 739 0024 6FF00F00 		mvn	r0, #15
 740 0028 F9E7     		b	.L98
 741              	.L100:
ARM GAS  C:\Users\SZYMAN~1.RAJ\AppData\Local\Temp\ccUaWHFB.s 			page 14


 742 002a 6FF00100 		mvn	r0, #1
 743 002e F6E7     		b	.L98
 744              	.L102:
 745              		.align	2
 746              	.L101:
 747 0030 00000000 		.word	.LANCHOR5
 748              		.size	OS_BinSemFlush, .-OS_BinSemFlush
 749              		.section	.text.OS_BinSemGive,"ax",%progbits
 750              		.align	1
 751              		.global	OS_BinSemGive
 752              		.syntax unified
 753              		.thumb
 754              		.thumb_func
 755              		.fpu fpv4-sp-d16
 756              		.type	OS_BinSemGive, %function
 757              	OS_BinSemGive:
 758              		@ args = 0, pretend = 0, frame = 0
 759              		@ frame_needed = 0, uses_anonymous_args = 0
 760 0000 10B5     		push	{r4, lr}
 761              		.syntax unified
 762              	@ 345 "CMSIS/include/cmsis_gcc.h" 1
 763 0002 EFF31084 		MRS r4, primask
 764              	@ 0 "" 2
 765              	@ 128 "CMSIS/include/cmsis_gcc.h" 1
 766 0006 72B6     		cpsid i
 767              	@ 0 "" 2
 768              		.thumb
 769              		.syntax unified
 770 0008 1328     		cmp	r0, #19
 771 000a 10D8     		bhi	.L106
 772 000c 0B4B     		ldr	r3, .L109
 773 000e 2822     		movs	r2, #40
 774 0010 02FB0030 		mla	r0, r2, r0, r3
 775 0014 436A     		ldr	r3, [r0, #36]
 776 0016 6BB1     		cbz	r3, .L107
 777 0018 0021     		movs	r1, #0
 778 001a FFF7FEFF 		bl	sem_sendFor
 779 001e 0028     		cmp	r0, #0
 780 0020 0CBF     		ite	eq
 781 0022 0020     		moveq	r0, #0
 782 0024 6FF00500 		mvnne	r0, #5
 783              	.L104:
 784              		.syntax unified
 785              	@ 373 "CMSIS/include/cmsis_gcc.h" 1
 786 0028 84F31088 		MSR primask, r4
 787              	@ 0 "" 2
 788              		.thumb
 789              		.syntax unified
 790 002c 10BD     		pop	{r4, pc}
 791              	.L106:
 792 002e 6FF00F00 		mvn	r0, #15
 793 0032 F9E7     		b	.L104
 794              	.L107:
 795 0034 6FF00100 		mvn	r0, #1
 796 0038 F6E7     		b	.L104
 797              	.L110:
 798 003a 00BF     		.align	2
ARM GAS  C:\Users\SZYMAN~1.RAJ\AppData\Local\Temp\ccUaWHFB.s 			page 15


 799              	.L109:
 800 003c 00000000 		.word	.LANCHOR5
 801              		.size	OS_BinSemGive, .-OS_BinSemGive
 802              		.section	.text.OS_BinSemTake,"ax",%progbits
 803              		.align	1
 804              		.global	OS_BinSemTake
 805              		.syntax unified
 806              		.thumb
 807              		.thumb_func
 808              		.fpu fpv4-sp-d16
 809              		.type	OS_BinSemTake, %function
 810              	OS_BinSemTake:
 811              		@ args = 0, pretend = 0, frame = 0
 812              		@ frame_needed = 0, uses_anonymous_args = 0
 813 0000 10B5     		push	{r4, lr}
 814              		.syntax unified
 815              	@ 345 "CMSIS/include/cmsis_gcc.h" 1
 816 0002 EFF31084 		MRS r4, primask
 817              	@ 0 "" 2
 818              	@ 128 "CMSIS/include/cmsis_gcc.h" 1
 819 0006 72B6     		cpsid i
 820              	@ 0 "" 2
 821              		.thumb
 822              		.syntax unified
 823 0008 1328     		cmp	r0, #19
 824 000a 11D8     		bhi	.L114
 825 000c 0B4B     		ldr	r3, .L117
 826 000e 2822     		movs	r2, #40
 827 0010 02FB0030 		mla	r0, r2, r0, r3
 828 0014 436A     		ldr	r3, [r0, #36]
 829 0016 73B1     		cbz	r3, .L115
 830 0018 4FF0FF31 		mov	r1, #-1
 831 001c FFF7FEFF 		bl	sem_waitFor
 832 0020 0028     		cmp	r0, #0
 833 0022 0CBF     		ite	eq
 834 0024 0020     		moveq	r0, #0
 835 0026 6FF00500 		mvnne	r0, #5
 836              	.L112:
 837              		.syntax unified
 838              	@ 373 "CMSIS/include/cmsis_gcc.h" 1
 839 002a 84F31088 		MSR primask, r4
 840              	@ 0 "" 2
 841              		.thumb
 842              		.syntax unified
 843 002e 10BD     		pop	{r4, pc}
 844              	.L114:
 845 0030 6FF00F00 		mvn	r0, #15
 846 0034 F9E7     		b	.L112
 847              	.L115:
 848 0036 6FF00100 		mvn	r0, #1
 849 003a F6E7     		b	.L112
 850              	.L118:
 851              		.align	2
 852              	.L117:
 853 003c 00000000 		.word	.LANCHOR5
 854              		.size	OS_BinSemTake, .-OS_BinSemTake
 855              		.section	.text.OS_BinSemTimedWait,"ax",%progbits
ARM GAS  C:\Users\SZYMAN~1.RAJ\AppData\Local\Temp\ccUaWHFB.s 			page 16


 856              		.align	1
 857              		.global	OS_BinSemTimedWait
 858              		.syntax unified
 859              		.thumb
 860              		.thumb_func
 861              		.fpu fpv4-sp-d16
 862              		.type	OS_BinSemTimedWait, %function
 863              	OS_BinSemTimedWait:
 864              		@ args = 0, pretend = 0, frame = 0
 865              		@ frame_needed = 0, uses_anonymous_args = 0
 866 0000 10B5     		push	{r4, lr}
 867              		.syntax unified
 868              	@ 345 "CMSIS/include/cmsis_gcc.h" 1
 869 0002 EFF31084 		MRS r4, primask
 870              	@ 0 "" 2
 871              	@ 128 "CMSIS/include/cmsis_gcc.h" 1
 872 0006 72B6     		cpsid i
 873              	@ 0 "" 2
 874              		.thumb
 875              		.syntax unified
 876 0008 1328     		cmp	r0, #19
 877 000a 17D8     		bhi	.L123
 878 000c 0E4B     		ldr	r3, .L126
 879 000e 2822     		movs	r2, #40
 880 0010 02FB0030 		mla	r0, r2, r0, r3
 881 0014 436A     		ldr	r3, [r0, #36]
 882 0016 A3B1     		cbz	r3, .L124
 883 0018 0C4B     		ldr	r3, .L126+4
 884 001a 5943     		muls	r1, r3, r1
 885 001c 4FF47A73 		mov	r3, #1000
 886 0020 B1FBF3F1 		udiv	r1, r1, r3
 887 0024 FFF7FEFF 		bl	sem_waitFor
 888 0028 28B1     		cbz	r0, .L120
 889 002a 831C     		adds	r3, r0, #2
 890 002c 0CBF     		ite	eq
 891 002e 6FF00600 		mvneq	r0, #6
 892 0032 6FF00500 		mvnne	r0, #5
 893              	.L120:
 894              		.syntax unified
 895              	@ 373 "CMSIS/include/cmsis_gcc.h" 1
 896 0036 84F31088 		MSR primask, r4
 897              	@ 0 "" 2
 898              		.thumb
 899              		.syntax unified
 900 003a 10BD     		pop	{r4, pc}
 901              	.L123:
 902 003c 6FF00F00 		mvn	r0, #15
 903 0040 F9E7     		b	.L120
 904              	.L124:
 905 0042 6FF00100 		mvn	r0, #1
 906 0046 F6E7     		b	.L120
 907              	.L127:
 908              		.align	2
 909              	.L126:
 910 0048 00000000 		.word	.LANCHOR5
 911 004c 40420F00 		.word	1000000
 912              		.size	OS_BinSemTimedWait, .-OS_BinSemTimedWait
ARM GAS  C:\Users\SZYMAN~1.RAJ\AppData\Local\Temp\ccUaWHFB.s 			page 17


 913              		.section	.text.OS_BinSemGetIdByName,"ax",%progbits
 914              		.align	1
 915              		.global	OS_BinSemGetIdByName
 916              		.syntax unified
 917              		.thumb
 918              		.thumb_func
 919              		.fpu fpv4-sp-d16
 920              		.type	OS_BinSemGetIdByName, %function
 921              	OS_BinSemGetIdByName:
 922              		@ args = 0, pretend = 0, frame = 0
 923              		@ frame_needed = 0, uses_anonymous_args = 0
 924 0000 2DE9F843 		push	{r3, r4, r5, r6, r7, r8, r9, lr}
 925 0004 0646     		mov	r6, r0
 926 0006 0F46     		mov	r7, r1
 927              		.syntax unified
 928              	@ 345 "CMSIS/include/cmsis_gcc.h" 1
 929 0008 EFF31085 		MRS r5, primask
 930              	@ 0 "" 2
 931              	@ 128 "CMSIS/include/cmsis_gcc.h" 1
 932 000c 72B6     		cpsid i
 933              	@ 0 "" 2
 934              		.thumb
 935              		.syntax unified
 936 000e 30B3     		cbz	r0, .L134
 937 0010 29B3     		cbz	r1, .L134
 938 0012 0846     		mov	r0, r1
 939 0014 FFF7FEFF 		bl	strlen
 940 0018 1328     		cmp	r0, #19
 941 001a 23D8     		bhi	.L135
 942 001c 134C     		ldr	r4, .L141
 943 001e A146     		mov	r9, r4
 944 0020 04F54878 		add	r8, r4, #800
 945              	.L132:
 946 0024 636A     		ldr	r3, [r4, #36]
 947 0026 2BB1     		cbz	r3, .L130
 948 0028 3946     		mov	r1, r7
 949 002a 04F10C00 		add	r0, r4, #12
 950 002e FFF7FEFF 		bl	strcmp
 951 0032 28B1     		cbz	r0, .L131
 952              	.L130:
 953 0034 2834     		adds	r4, r4, #40
 954 0036 4445     		cmp	r4, r8
 955 0038 F4D3     		bcc	.L132
 956              	.L136:
 957 003a 6FF01000 		mvn	r0, #16
 958 003e 0AE0     		b	.L129
 959              	.L131:
 960 0040 4445     		cmp	r4, r8
 961 0042 FAD2     		bcs	.L136
 962 0044 0A4B     		ldr	r3, .L141+4
 963 0046 A4EB0904 		sub	r4, r4, r9
 964 004a E410     		asrs	r4, r4, #3
 965 004c 5C43     		muls	r4, r3, r4
 966 004e 2823     		movs	r3, #40
 967 0050 B4FBF3F4 		udiv	r4, r4, r3
 968 0054 3460     		str	r4, [r6]
 969              	.L129:
ARM GAS  C:\Users\SZYMAN~1.RAJ\AppData\Local\Temp\ccUaWHFB.s 			page 18


 970              		.syntax unified
 971              	@ 373 "CMSIS/include/cmsis_gcc.h" 1
 972 0056 85F31088 		MSR primask, r5
 973              	@ 0 "" 2
 974              		.thumb
 975              		.syntax unified
 976 005a BDE8F883 		pop	{r3, r4, r5, r6, r7, r8, r9, pc}
 977              	.L134:
 978 005e 6FF00100 		mvn	r0, #1
 979 0062 F8E7     		b	.L129
 980              	.L135:
 981 0064 6FF00C00 		mvn	r0, #12
 982 0068 F5E7     		b	.L129
 983              	.L142:
 984 006a 00BF     		.align	2
 985              	.L141:
 986 006c 00000000 		.word	.LANCHOR5
 987 0070 CDCCCCCC 		.word	-858993459
 988              		.size	OS_BinSemGetIdByName, .-OS_BinSemGetIdByName
 989              		.section	.text.OS_BinSemGetInfo,"ax",%progbits
 990              		.align	1
 991              		.global	OS_BinSemGetInfo
 992              		.syntax unified
 993              		.thumb
 994              		.thumb_func
 995              		.fpu fpv4-sp-d16
 996              		.type	OS_BinSemGetInfo, %function
 997              	OS_BinSemGetInfo:
 998              		@ args = 0, pretend = 0, frame = 0
 999              		@ frame_needed = 0, uses_anonymous_args = 0
 1000 0000 38B5     		push	{r3, r4, r5, lr}
 1001 0002 0A46     		mov	r2, r1
 1002              		.syntax unified
 1003              	@ 345 "CMSIS/include/cmsis_gcc.h" 1
 1004 0004 EFF31085 		MRS r5, primask
 1005              	@ 0 "" 2
 1006              	@ 128 "CMSIS/include/cmsis_gcc.h" 1
 1007 0008 72B6     		cpsid i
 1008              	@ 0 "" 2
 1009              		.thumb
 1010              		.syntax unified
 1011 000a 1328     		cmp	r0, #19
 1012 000c 13D8     		bhi	.L145
 1013 000e A9B1     		cbz	r1, .L147
 1014 0010 2823     		movs	r3, #40
 1015 0012 0C49     		ldr	r1, .L148
 1016 0014 5843     		muls	r0, r3, r0
 1017 0016 0C18     		adds	r4, r1, r0
 1018 0018 636A     		ldr	r3, [r4, #36]
 1019 001a 7BB1     		cbz	r3, .L147
 1020 001c 0C30     		adds	r0, r0, #12
 1021 001e 0144     		add	r1, r1, r0
 1022 0020 1046     		mov	r0, r2
 1023 0022 FFF7FEFF 		bl	strcpy
 1024 0026 236A     		ldr	r3, [r4, #32]
 1025 0028 4361     		str	r3, [r0, #20]
 1026 002a 6368     		ldr	r3, [r4, #4]
ARM GAS  C:\Users\SZYMAN~1.RAJ\AppData\Local\Temp\ccUaWHFB.s 			page 19


 1027 002c 8361     		str	r3, [r0, #24]
 1028 002e 0020     		movs	r0, #0
 1029              	.L144:
 1030              		.syntax unified
 1031              	@ 373 "CMSIS/include/cmsis_gcc.h" 1
 1032 0030 85F31088 		MSR primask, r5
 1033              	@ 0 "" 2
 1034              		.thumb
 1035              		.syntax unified
 1036 0034 38BD     		pop	{r3, r4, r5, pc}
 1037              	.L145:
 1038 0036 6FF00F00 		mvn	r0, #15
 1039 003a F9E7     		b	.L144
 1040              	.L147:
 1041 003c 6FF00100 		mvn	r0, #1
 1042 0040 F6E7     		b	.L144
 1043              	.L149:
 1044 0042 00BF     		.align	2
 1045              	.L148:
 1046 0044 00000000 		.word	.LANCHOR5
 1047              		.size	OS_BinSemGetInfo, .-OS_BinSemGetInfo
 1048              		.section	.text.OS_CountSemDelete,"ax",%progbits
 1049              		.align	1
 1050              		.global	OS_CountSemDelete
 1051              		.syntax unified
 1052              		.thumb
 1053              		.thumb_func
 1054              		.fpu fpv4-sp-d16
 1055              		.type	OS_CountSemDelete, %function
 1056              	OS_CountSemDelete:
 1057              		@ args = 0, pretend = 0, frame = 0
 1058              		@ frame_needed = 0, uses_anonymous_args = 0
 1059 0000 38B5     		push	{r3, r4, r5, lr}
 1060              		.syntax unified
 1061              	@ 345 "CMSIS/include/cmsis_gcc.h" 1
 1062 0002 EFF31085 		MRS r5, primask
 1063              	@ 0 "" 2
 1064              	@ 128 "CMSIS/include/cmsis_gcc.h" 1
 1065 0006 72B6     		cpsid i
 1066              	@ 0 "" 2
 1067              		.thumb
 1068              		.syntax unified
 1069 0008 1328     		cmp	r0, #19
 1070 000a 0DD8     		bhi	.L152
 1071 000c 094C     		ldr	r4, .L154
 1072 000e 2823     		movs	r3, #40
 1073 0010 03FB0044 		mla	r4, r3, r0, r4
 1074 0014 636A     		ldr	r3, [r4, #36]
 1075 0016 53B1     		cbz	r3, .L153
 1076 0018 2046     		mov	r0, r4
 1077 001a FFF7FEFF 		bl	sem_kill
 1078 001e 0020     		movs	r0, #0
 1079 0020 6062     		str	r0, [r4, #36]
 1080              	.L151:
 1081              		.syntax unified
 1082              	@ 373 "CMSIS/include/cmsis_gcc.h" 1
 1083 0022 85F31088 		MSR primask, r5
ARM GAS  C:\Users\SZYMAN~1.RAJ\AppData\Local\Temp\ccUaWHFB.s 			page 20


 1084              	@ 0 "" 2
 1085              		.thumb
 1086              		.syntax unified
 1087 0026 38BD     		pop	{r3, r4, r5, pc}
 1088              	.L152:
 1089 0028 6FF00F00 		mvn	r0, #15
 1090 002c F9E7     		b	.L151
 1091              	.L153:
 1092 002e 6FF00100 		mvn	r0, #1
 1093 0032 F6E7     		b	.L151
 1094              	.L155:
 1095              		.align	2
 1096              	.L154:
 1097 0034 00000000 		.word	.LANCHOR6
 1098              		.size	OS_CountSemDelete, .-OS_CountSemDelete
 1099              		.section	.text.OS_CountSemGive,"ax",%progbits
 1100              		.align	1
 1101              		.global	OS_CountSemGive
 1102              		.syntax unified
 1103              		.thumb
 1104              		.thumb_func
 1105              		.fpu fpv4-sp-d16
 1106              		.type	OS_CountSemGive, %function
 1107              	OS_CountSemGive:
 1108              		@ args = 0, pretend = 0, frame = 0
 1109              		@ frame_needed = 0, uses_anonymous_args = 0
 1110 0000 10B5     		push	{r4, lr}
 1111              		.syntax unified
 1112              	@ 345 "CMSIS/include/cmsis_gcc.h" 1
 1113 0002 EFF31084 		MRS r4, primask
 1114              	@ 0 "" 2
 1115              	@ 128 "CMSIS/include/cmsis_gcc.h" 1
 1116 0006 72B6     		cpsid i
 1117              	@ 0 "" 2
 1118              		.thumb
 1119              		.syntax unified
 1120 0008 1328     		cmp	r0, #19
 1121 000a 10D8     		bhi	.L159
 1122 000c 0B4B     		ldr	r3, .L162
 1123 000e 2822     		movs	r2, #40
 1124 0010 02FB0030 		mla	r0, r2, r0, r3
 1125 0014 436A     		ldr	r3, [r0, #36]
 1126 0016 6BB1     		cbz	r3, .L160
 1127 0018 0021     		movs	r1, #0
 1128 001a FFF7FEFF 		bl	sem_sendFor
 1129 001e 0028     		cmp	r0, #0
 1130 0020 0CBF     		ite	eq
 1131 0022 0020     		moveq	r0, #0
 1132 0024 6FF00500 		mvnne	r0, #5
 1133              	.L157:
 1134              		.syntax unified
 1135              	@ 373 "CMSIS/include/cmsis_gcc.h" 1
 1136 0028 84F31088 		MSR primask, r4
 1137              	@ 0 "" 2
 1138              		.thumb
 1139              		.syntax unified
 1140 002c 10BD     		pop	{r4, pc}
ARM GAS  C:\Users\SZYMAN~1.RAJ\AppData\Local\Temp\ccUaWHFB.s 			page 21


 1141              	.L159:
 1142 002e 6FF00F00 		mvn	r0, #15
 1143 0032 F9E7     		b	.L157
 1144              	.L160:
 1145 0034 6FF00100 		mvn	r0, #1
 1146 0038 F6E7     		b	.L157
 1147              	.L163:
 1148 003a 00BF     		.align	2
 1149              	.L162:
 1150 003c 00000000 		.word	.LANCHOR6
 1151              		.size	OS_CountSemGive, .-OS_CountSemGive
 1152              		.section	.text.OS_CountSemTake,"ax",%progbits
 1153              		.align	1
 1154              		.global	OS_CountSemTake
 1155              		.syntax unified
 1156              		.thumb
 1157              		.thumb_func
 1158              		.fpu fpv4-sp-d16
 1159              		.type	OS_CountSemTake, %function
 1160              	OS_CountSemTake:
 1161              		@ args = 0, pretend = 0, frame = 0
 1162              		@ frame_needed = 0, uses_anonymous_args = 0
 1163 0000 10B5     		push	{r4, lr}
 1164              		.syntax unified
 1165              	@ 345 "CMSIS/include/cmsis_gcc.h" 1
 1166 0002 EFF31084 		MRS r4, primask
 1167              	@ 0 "" 2
 1168              	@ 128 "CMSIS/include/cmsis_gcc.h" 1
 1169 0006 72B6     		cpsid i
 1170              	@ 0 "" 2
 1171              		.thumb
 1172              		.syntax unified
 1173 0008 1328     		cmp	r0, #19
 1174 000a 11D8     		bhi	.L167
 1175 000c 0B4B     		ldr	r3, .L170
 1176 000e 2822     		movs	r2, #40
 1177 0010 02FB0030 		mla	r0, r2, r0, r3
 1178 0014 436A     		ldr	r3, [r0, #36]
 1179 0016 73B1     		cbz	r3, .L168
 1180 0018 4FF0FF31 		mov	r1, #-1
 1181 001c FFF7FEFF 		bl	sem_waitFor
 1182 0020 0028     		cmp	r0, #0
 1183 0022 0CBF     		ite	eq
 1184 0024 0020     		moveq	r0, #0
 1185 0026 6FF00500 		mvnne	r0, #5
 1186              	.L165:
 1187              		.syntax unified
 1188              	@ 373 "CMSIS/include/cmsis_gcc.h" 1
 1189 002a 84F31088 		MSR primask, r4
 1190              	@ 0 "" 2
 1191              		.thumb
 1192              		.syntax unified
 1193 002e 10BD     		pop	{r4, pc}
 1194              	.L167:
 1195 0030 6FF00F00 		mvn	r0, #15
 1196 0034 F9E7     		b	.L165
 1197              	.L168:
ARM GAS  C:\Users\SZYMAN~1.RAJ\AppData\Local\Temp\ccUaWHFB.s 			page 22


 1198 0036 6FF00100 		mvn	r0, #1
 1199 003a F6E7     		b	.L165
 1200              	.L171:
 1201              		.align	2
 1202              	.L170:
 1203 003c 00000000 		.word	.LANCHOR6
 1204              		.size	OS_CountSemTake, .-OS_CountSemTake
 1205              		.section	.text.OS_CountSemTimedWait,"ax",%progbits
 1206              		.align	1
 1207              		.global	OS_CountSemTimedWait
 1208              		.syntax unified
 1209              		.thumb
 1210              		.thumb_func
 1211              		.fpu fpv4-sp-d16
 1212              		.type	OS_CountSemTimedWait, %function
 1213              	OS_CountSemTimedWait:
 1214              		@ args = 0, pretend = 0, frame = 0
 1215              		@ frame_needed = 0, uses_anonymous_args = 0
 1216 0000 10B5     		push	{r4, lr}
 1217              		.syntax unified
 1218              	@ 345 "CMSIS/include/cmsis_gcc.h" 1
 1219 0002 EFF31084 		MRS r4, primask
 1220              	@ 0 "" 2
 1221              	@ 128 "CMSIS/include/cmsis_gcc.h" 1
 1222 0006 72B6     		cpsid i
 1223              	@ 0 "" 2
 1224              		.thumb
 1225              		.syntax unified
 1226 0008 1328     		cmp	r0, #19
 1227 000a 17D8     		bhi	.L176
 1228 000c 0E4B     		ldr	r3, .L179
 1229 000e 2822     		movs	r2, #40
 1230 0010 02FB0030 		mla	r0, r2, r0, r3
 1231 0014 436A     		ldr	r3, [r0, #36]
 1232 0016 A3B1     		cbz	r3, .L177
 1233 0018 0C4B     		ldr	r3, .L179+4
 1234 001a 5943     		muls	r1, r3, r1
 1235 001c 4FF47A73 		mov	r3, #1000
 1236 0020 B1FBF3F1 		udiv	r1, r1, r3
 1237 0024 FFF7FEFF 		bl	sem_waitFor
 1238 0028 28B1     		cbz	r0, .L173
 1239 002a 831C     		adds	r3, r0, #2
 1240 002c 0CBF     		ite	eq
 1241 002e 6FF00600 		mvneq	r0, #6
 1242 0032 6FF00500 		mvnne	r0, #5
 1243              	.L173:
 1244              		.syntax unified
 1245              	@ 373 "CMSIS/include/cmsis_gcc.h" 1
 1246 0036 84F31088 		MSR primask, r4
 1247              	@ 0 "" 2
 1248              		.thumb
 1249              		.syntax unified
 1250 003a 10BD     		pop	{r4, pc}
 1251              	.L176:
 1252 003c 6FF00F00 		mvn	r0, #15
 1253 0040 F9E7     		b	.L173
 1254              	.L177:
ARM GAS  C:\Users\SZYMAN~1.RAJ\AppData\Local\Temp\ccUaWHFB.s 			page 23


 1255 0042 6FF00100 		mvn	r0, #1
 1256 0046 F6E7     		b	.L173
 1257              	.L180:
 1258              		.align	2
 1259              	.L179:
 1260 0048 00000000 		.word	.LANCHOR6
 1261 004c 40420F00 		.word	1000000
 1262              		.size	OS_CountSemTimedWait, .-OS_CountSemTimedWait
 1263              		.section	.text.OS_CountSemGetIdByName,"ax",%progbits
 1264              		.align	1
 1265              		.global	OS_CountSemGetIdByName
 1266              		.syntax unified
 1267              		.thumb
 1268              		.thumb_func
 1269              		.fpu fpv4-sp-d16
 1270              		.type	OS_CountSemGetIdByName, %function
 1271              	OS_CountSemGetIdByName:
 1272              		@ args = 0, pretend = 0, frame = 0
 1273              		@ frame_needed = 0, uses_anonymous_args = 0
 1274 0000 2DE9F843 		push	{r3, r4, r5, r6, r7, r8, r9, lr}
 1275 0004 0646     		mov	r6, r0
 1276 0006 0F46     		mov	r7, r1
 1277              		.syntax unified
 1278              	@ 345 "CMSIS/include/cmsis_gcc.h" 1
 1279 0008 EFF31085 		MRS r5, primask
 1280              	@ 0 "" 2
 1281              	@ 128 "CMSIS/include/cmsis_gcc.h" 1
 1282 000c 72B6     		cpsid i
 1283              	@ 0 "" 2
 1284              		.thumb
 1285              		.syntax unified
 1286 000e 30B3     		cbz	r0, .L187
 1287 0010 29B3     		cbz	r1, .L187
 1288 0012 0846     		mov	r0, r1
 1289 0014 FFF7FEFF 		bl	strlen
 1290 0018 1328     		cmp	r0, #19
 1291 001a 23D8     		bhi	.L188
 1292 001c 134C     		ldr	r4, .L194
 1293 001e A146     		mov	r9, r4
 1294 0020 04F54878 		add	r8, r4, #800
 1295              	.L185:
 1296 0024 636A     		ldr	r3, [r4, #36]
 1297 0026 2BB1     		cbz	r3, .L183
 1298 0028 3946     		mov	r1, r7
 1299 002a 04F10C00 		add	r0, r4, #12
 1300 002e FFF7FEFF 		bl	strcmp
 1301 0032 28B1     		cbz	r0, .L184
 1302              	.L183:
 1303 0034 2834     		adds	r4, r4, #40
 1304 0036 4445     		cmp	r4, r8
 1305 0038 F4D3     		bcc	.L185
 1306              	.L189:
 1307 003a 6FF01000 		mvn	r0, #16
 1308 003e 0AE0     		b	.L182
 1309              	.L184:
 1310 0040 4445     		cmp	r4, r8
 1311 0042 FAD2     		bcs	.L189
ARM GAS  C:\Users\SZYMAN~1.RAJ\AppData\Local\Temp\ccUaWHFB.s 			page 24


 1312 0044 0A4B     		ldr	r3, .L194+4
 1313 0046 A4EB0904 		sub	r4, r4, r9
 1314 004a E410     		asrs	r4, r4, #3
 1315 004c 5C43     		muls	r4, r3, r4
 1316 004e 2823     		movs	r3, #40
 1317 0050 B4FBF3F4 		udiv	r4, r4, r3
 1318 0054 3460     		str	r4, [r6]
 1319              	.L182:
 1320              		.syntax unified
 1321              	@ 373 "CMSIS/include/cmsis_gcc.h" 1
 1322 0056 85F31088 		MSR primask, r5
 1323              	@ 0 "" 2
 1324              		.thumb
 1325              		.syntax unified
 1326 005a BDE8F883 		pop	{r3, r4, r5, r6, r7, r8, r9, pc}
 1327              	.L187:
 1328 005e 6FF00100 		mvn	r0, #1
 1329 0062 F8E7     		b	.L182
 1330              	.L188:
 1331 0064 6FF00C00 		mvn	r0, #12
 1332 0068 F5E7     		b	.L182
 1333              	.L195:
 1334 006a 00BF     		.align	2
 1335              	.L194:
 1336 006c 00000000 		.word	.LANCHOR6
 1337 0070 CDCCCCCC 		.word	-858993459
 1338              		.size	OS_CountSemGetIdByName, .-OS_CountSemGetIdByName
 1339              		.section	.text.OS_CountSemGetInfo,"ax",%progbits
 1340              		.align	1
 1341              		.global	OS_CountSemGetInfo
 1342              		.syntax unified
 1343              		.thumb
 1344              		.thumb_func
 1345              		.fpu fpv4-sp-d16
 1346              		.type	OS_CountSemGetInfo, %function
 1347              	OS_CountSemGetInfo:
 1348              		@ args = 0, pretend = 0, frame = 0
 1349              		@ frame_needed = 0, uses_anonymous_args = 0
 1350 0000 38B5     		push	{r3, r4, r5, lr}
 1351 0002 0A46     		mov	r2, r1
 1352              		.syntax unified
 1353              	@ 345 "CMSIS/include/cmsis_gcc.h" 1
 1354 0004 EFF31085 		MRS r5, primask
 1355              	@ 0 "" 2
 1356              	@ 128 "CMSIS/include/cmsis_gcc.h" 1
 1357 0008 72B6     		cpsid i
 1358              	@ 0 "" 2
 1359              		.thumb
 1360              		.syntax unified
 1361 000a 1328     		cmp	r0, #19
 1362 000c 13D8     		bhi	.L198
 1363 000e A9B1     		cbz	r1, .L200
 1364 0010 2823     		movs	r3, #40
 1365 0012 0C49     		ldr	r1, .L201
 1366 0014 5843     		muls	r0, r3, r0
 1367 0016 0C18     		adds	r4, r1, r0
 1368 0018 636A     		ldr	r3, [r4, #36]
ARM GAS  C:\Users\SZYMAN~1.RAJ\AppData\Local\Temp\ccUaWHFB.s 			page 25


 1369 001a 7BB1     		cbz	r3, .L200
 1370 001c 0C30     		adds	r0, r0, #12
 1371 001e 0144     		add	r1, r1, r0
 1372 0020 1046     		mov	r0, r2
 1373 0022 FFF7FEFF 		bl	strcpy
 1374 0026 236A     		ldr	r3, [r4, #32]
 1375 0028 4361     		str	r3, [r0, #20]
 1376 002a 6368     		ldr	r3, [r4, #4]
 1377 002c 8361     		str	r3, [r0, #24]
 1378 002e 0020     		movs	r0, #0
 1379              	.L197:
 1380              		.syntax unified
 1381              	@ 373 "CMSIS/include/cmsis_gcc.h" 1
 1382 0030 85F31088 		MSR primask, r5
 1383              	@ 0 "" 2
 1384              		.thumb
 1385              		.syntax unified
 1386 0034 38BD     		pop	{r3, r4, r5, pc}
 1387              	.L198:
 1388 0036 6FF00F00 		mvn	r0, #15
 1389 003a F9E7     		b	.L197
 1390              	.L200:
 1391 003c 6FF00100 		mvn	r0, #1
 1392 0040 F6E7     		b	.L197
 1393              	.L202:
 1394 0042 00BF     		.align	2
 1395              	.L201:
 1396 0044 00000000 		.word	.LANCHOR6
 1397              		.size	OS_CountSemGetInfo, .-OS_CountSemGetInfo
 1398              		.section	.text.OS_MutSemDelete,"ax",%progbits
 1399              		.align	1
 1400              		.global	OS_MutSemDelete
 1401              		.syntax unified
 1402              		.thumb
 1403              		.thumb_func
 1404              		.fpu fpv4-sp-d16
 1405              		.type	OS_MutSemDelete, %function
 1406              	OS_MutSemDelete:
 1407              		@ args = 0, pretend = 0, frame = 0
 1408              		@ frame_needed = 0, uses_anonymous_args = 0
 1409 0000 38B5     		push	{r3, r4, r5, lr}
 1410              		.syntax unified
 1411              	@ 345 "CMSIS/include/cmsis_gcc.h" 1
 1412 0002 EFF31085 		MRS r5, primask
 1413              	@ 0 "" 2
 1414              	@ 128 "CMSIS/include/cmsis_gcc.h" 1
 1415 0006 72B6     		cpsid i
 1416              	@ 0 "" 2
 1417              		.thumb
 1418              		.syntax unified
 1419 0008 1328     		cmp	r0, #19
 1420 000a 0DD8     		bhi	.L205
 1421 000c 094C     		ldr	r4, .L207
 1422 000e 2C23     		movs	r3, #44
 1423 0010 03FB0044 		mla	r4, r3, r0, r4
 1424 0014 A36A     		ldr	r3, [r4, #40]
 1425 0016 53B1     		cbz	r3, .L206
ARM GAS  C:\Users\SZYMAN~1.RAJ\AppData\Local\Temp\ccUaWHFB.s 			page 26


 1426 0018 2046     		mov	r0, r4
 1427 001a FFF7FEFF 		bl	mtx_kill
 1428 001e 0020     		movs	r0, #0
 1429 0020 A062     		str	r0, [r4, #40]
 1430              	.L204:
 1431              		.syntax unified
 1432              	@ 373 "CMSIS/include/cmsis_gcc.h" 1
 1433 0022 85F31088 		MSR primask, r5
 1434              	@ 0 "" 2
 1435              		.thumb
 1436              		.syntax unified
 1437 0026 38BD     		pop	{r3, r4, r5, pc}
 1438              	.L205:
 1439 0028 6FF00F00 		mvn	r0, #15
 1440 002c F9E7     		b	.L204
 1441              	.L206:
 1442 002e 6FF00100 		mvn	r0, #1
 1443 0032 F6E7     		b	.L204
 1444              	.L208:
 1445              		.align	2
 1446              	.L207:
 1447 0034 00000000 		.word	.LANCHOR7
 1448              		.size	OS_MutSemDelete, .-OS_MutSemDelete
 1449              		.section	.text.OS_MutSemGive,"ax",%progbits
 1450              		.align	1
 1451              		.global	OS_MutSemGive
 1452              		.syntax unified
 1453              		.thumb
 1454              		.thumb_func
 1455              		.fpu fpv4-sp-d16
 1456              		.type	OS_MutSemGive, %function
 1457              	OS_MutSemGive:
 1458              		@ args = 0, pretend = 0, frame = 0
 1459              		@ frame_needed = 0, uses_anonymous_args = 0
 1460 0000 10B5     		push	{r4, lr}
 1461              		.syntax unified
 1462              	@ 345 "CMSIS/include/cmsis_gcc.h" 1
 1463 0002 EFF31084 		MRS r4, primask
 1464              	@ 0 "" 2
 1465              	@ 128 "CMSIS/include/cmsis_gcc.h" 1
 1466 0006 72B6     		cpsid i
 1467              	@ 0 "" 2
 1468              		.thumb
 1469              		.syntax unified
 1470 0008 1328     		cmp	r0, #19
 1471 000a 0FD8     		bhi	.L212
 1472 000c 0A4B     		ldr	r3, .L215
 1473 000e 2C22     		movs	r2, #44
 1474 0010 02FB0030 		mla	r0, r2, r0, r3
 1475 0014 836A     		ldr	r3, [r0, #40]
 1476 0016 63B1     		cbz	r3, .L213
 1477 0018 FFF7FEFF 		bl	mtx_give
 1478 001c 0028     		cmp	r0, #0
 1479 001e 0CBF     		ite	eq
 1480 0020 0020     		moveq	r0, #0
 1481 0022 6FF00500 		mvnne	r0, #5
 1482              	.L210:
ARM GAS  C:\Users\SZYMAN~1.RAJ\AppData\Local\Temp\ccUaWHFB.s 			page 27


 1483              		.syntax unified
 1484              	@ 373 "CMSIS/include/cmsis_gcc.h" 1
 1485 0026 84F31088 		MSR primask, r4
 1486              	@ 0 "" 2
 1487              		.thumb
 1488              		.syntax unified
 1489 002a 10BD     		pop	{r4, pc}
 1490              	.L212:
 1491 002c 6FF00F00 		mvn	r0, #15
 1492 0030 F9E7     		b	.L210
 1493              	.L213:
 1494 0032 6FF00100 		mvn	r0, #1
 1495 0036 F6E7     		b	.L210
 1496              	.L216:
 1497              		.align	2
 1498              	.L215:
 1499 0038 00000000 		.word	.LANCHOR7
 1500              		.size	OS_MutSemGive, .-OS_MutSemGive
 1501              		.section	.text.OS_MutSemTake,"ax",%progbits
 1502              		.align	1
 1503              		.global	OS_MutSemTake
 1504              		.syntax unified
 1505              		.thumb
 1506              		.thumb_func
 1507              		.fpu fpv4-sp-d16
 1508              		.type	OS_MutSemTake, %function
 1509              	OS_MutSemTake:
 1510              		@ args = 0, pretend = 0, frame = 0
 1511              		@ frame_needed = 0, uses_anonymous_args = 0
 1512 0000 10B5     		push	{r4, lr}
 1513              		.syntax unified
 1514              	@ 345 "CMSIS/include/cmsis_gcc.h" 1
 1515 0002 EFF31084 		MRS r4, primask
 1516              	@ 0 "" 2
 1517              	@ 128 "CMSIS/include/cmsis_gcc.h" 1
 1518 0006 72B6     		cpsid i
 1519              	@ 0 "" 2
 1520              		.thumb
 1521              		.syntax unified
 1522 0008 1328     		cmp	r0, #19
 1523 000a 11D8     		bhi	.L220
 1524 000c 0B4B     		ldr	r3, .L223
 1525 000e 2C22     		movs	r2, #44
 1526 0010 02FB0030 		mla	r0, r2, r0, r3
 1527 0014 836A     		ldr	r3, [r0, #40]
 1528 0016 73B1     		cbz	r3, .L221
 1529 0018 4FF0FF31 		mov	r1, #-1
 1530 001c FFF7FEFF 		bl	mtx_waitFor
 1531 0020 0028     		cmp	r0, #0
 1532 0022 0CBF     		ite	eq
 1533 0024 0020     		moveq	r0, #0
 1534 0026 6FF00500 		mvnne	r0, #5
 1535              	.L218:
 1536              		.syntax unified
 1537              	@ 373 "CMSIS/include/cmsis_gcc.h" 1
 1538 002a 84F31088 		MSR primask, r4
 1539              	@ 0 "" 2
ARM GAS  C:\Users\SZYMAN~1.RAJ\AppData\Local\Temp\ccUaWHFB.s 			page 28


 1540              		.thumb
 1541              		.syntax unified
 1542 002e 10BD     		pop	{r4, pc}
 1543              	.L220:
 1544 0030 6FF00F00 		mvn	r0, #15
 1545 0034 F9E7     		b	.L218
 1546              	.L221:
 1547 0036 6FF00100 		mvn	r0, #1
 1548 003a F6E7     		b	.L218
 1549              	.L224:
 1550              		.align	2
 1551              	.L223:
 1552 003c 00000000 		.word	.LANCHOR7
 1553              		.size	OS_MutSemTake, .-OS_MutSemTake
 1554              		.section	.text.OS_MutSemGetIdByName,"ax",%progbits
 1555              		.align	1
 1556              		.global	OS_MutSemGetIdByName
 1557              		.syntax unified
 1558              		.thumb
 1559              		.thumb_func
 1560              		.fpu fpv4-sp-d16
 1561              		.type	OS_MutSemGetIdByName, %function
 1562              	OS_MutSemGetIdByName:
 1563              		@ args = 0, pretend = 0, frame = 0
 1564              		@ frame_needed = 0, uses_anonymous_args = 0
 1565 0000 2DE9F843 		push	{r3, r4, r5, r6, r7, r8, r9, lr}
 1566 0004 0646     		mov	r6, r0
 1567 0006 0F46     		mov	r7, r1
 1568              		.syntax unified
 1569              	@ 345 "CMSIS/include/cmsis_gcc.h" 1
 1570 0008 EFF31085 		MRS r5, primask
 1571              	@ 0 "" 2
 1572              	@ 128 "CMSIS/include/cmsis_gcc.h" 1
 1573 000c 72B6     		cpsid i
 1574              	@ 0 "" 2
 1575              		.thumb
 1576              		.syntax unified
 1577 000e 30B3     		cbz	r0, .L231
 1578 0010 29B3     		cbz	r1, .L231
 1579 0012 0846     		mov	r0, r1
 1580 0014 FFF7FEFF 		bl	strlen
 1581 0018 1328     		cmp	r0, #19
 1582 001a 23D8     		bhi	.L232
 1583 001c 134C     		ldr	r4, .L238
 1584 001e A146     		mov	r9, r4
 1585 0020 04F55C78 		add	r8, r4, #880
 1586              	.L229:
 1587 0024 A36A     		ldr	r3, [r4, #40]
 1588 0026 2BB1     		cbz	r3, .L227
 1589 0028 3946     		mov	r1, r7
 1590 002a 04F11000 		add	r0, r4, #16
 1591 002e FFF7FEFF 		bl	strcmp
 1592 0032 28B1     		cbz	r0, .L228
 1593              	.L227:
 1594 0034 2C34     		adds	r4, r4, #44
 1595 0036 4445     		cmp	r4, r8
 1596 0038 F4D3     		bcc	.L229
ARM GAS  C:\Users\SZYMAN~1.RAJ\AppData\Local\Temp\ccUaWHFB.s 			page 29


 1597              	.L233:
 1598 003a 6FF01000 		mvn	r0, #16
 1599 003e 0AE0     		b	.L226
 1600              	.L228:
 1601 0040 4445     		cmp	r4, r8
 1602 0042 FAD2     		bcs	.L233
 1603 0044 0A4B     		ldr	r3, .L238+4
 1604 0046 A4EB0904 		sub	r4, r4, r9
 1605 004a A410     		asrs	r4, r4, #2
 1606 004c 5C43     		muls	r4, r3, r4
 1607 004e 2C23     		movs	r3, #44
 1608 0050 B4FBF3F4 		udiv	r4, r4, r3
 1609 0054 3460     		str	r4, [r6]
 1610              	.L226:
 1611              		.syntax unified
 1612              	@ 373 "CMSIS/include/cmsis_gcc.h" 1
 1613 0056 85F31088 		MSR primask, r5
 1614              	@ 0 "" 2
 1615              		.thumb
 1616              		.syntax unified
 1617 005a BDE8F883 		pop	{r3, r4, r5, r6, r7, r8, r9, pc}
 1618              	.L231:
 1619 005e 6FF00100 		mvn	r0, #1
 1620 0062 F8E7     		b	.L226
 1621              	.L232:
 1622 0064 6FF00C00 		mvn	r0, #12
 1623 0068 F5E7     		b	.L226
 1624              	.L239:
 1625 006a 00BF     		.align	2
 1626              	.L238:
 1627 006c 00000000 		.word	.LANCHOR7
 1628 0070 A38B2EBA 		.word	-1171354717
 1629              		.size	OS_MutSemGetIdByName, .-OS_MutSemGetIdByName
 1630              		.section	.text.OS_MutSemGetInfo,"ax",%progbits
 1631              		.align	1
 1632              		.global	OS_MutSemGetInfo
 1633              		.syntax unified
 1634              		.thumb
 1635              		.thumb_func
 1636              		.fpu fpv4-sp-d16
 1637              		.type	OS_MutSemGetInfo, %function
 1638              	OS_MutSemGetInfo:
 1639              		@ args = 0, pretend = 0, frame = 0
 1640              		@ frame_needed = 0, uses_anonymous_args = 0
 1641 0000 38B5     		push	{r3, r4, r5, lr}
 1642 0002 0A46     		mov	r2, r1
 1643              		.syntax unified
 1644              	@ 345 "CMSIS/include/cmsis_gcc.h" 1
 1645 0004 EFF31085 		MRS r5, primask
 1646              	@ 0 "" 2
 1647              	@ 128 "CMSIS/include/cmsis_gcc.h" 1
 1648 0008 72B6     		cpsid i
 1649              	@ 0 "" 2
 1650              		.thumb
 1651              		.syntax unified
 1652 000a 1328     		cmp	r0, #19
 1653 000c 11D8     		bhi	.L242
ARM GAS  C:\Users\SZYMAN~1.RAJ\AppData\Local\Temp\ccUaWHFB.s 			page 30


 1654 000e 99B1     		cbz	r1, .L244
 1655 0010 2C23     		movs	r3, #44
 1656 0012 0B49     		ldr	r1, .L245
 1657 0014 5843     		muls	r0, r3, r0
 1658 0016 0C18     		adds	r4, r1, r0
 1659 0018 A36A     		ldr	r3, [r4, #40]
 1660 001a 6BB1     		cbz	r3, .L244
 1661 001c 1030     		adds	r0, r0, #16
 1662 001e 0144     		add	r1, r1, r0
 1663 0020 1046     		mov	r0, r2
 1664 0022 FFF7FEFF 		bl	strcpy
 1665 0026 636A     		ldr	r3, [r4, #36]
 1666 0028 4361     		str	r3, [r0, #20]
 1667 002a 0020     		movs	r0, #0
 1668              	.L241:
 1669              		.syntax unified
 1670              	@ 373 "CMSIS/include/cmsis_gcc.h" 1
 1671 002c 85F31088 		MSR primask, r5
 1672              	@ 0 "" 2
 1673              		.thumb
 1674              		.syntax unified
 1675 0030 38BD     		pop	{r3, r4, r5, pc}
 1676              	.L242:
 1677 0032 6FF00F00 		mvn	r0, #15
 1678 0036 F9E7     		b	.L241
 1679              	.L244:
 1680 0038 6FF00100 		mvn	r0, #1
 1681 003c F6E7     		b	.L241
 1682              	.L246:
 1683 003e 00BF     		.align	2
 1684              	.L245:
 1685 0040 00000000 		.word	.LANCHOR7
 1686              		.size	OS_MutSemGetInfo, .-OS_MutSemGetInfo
 1687              		.section	.text.OS_TaskDelete,"ax",%progbits
 1688              		.align	1
 1689              		.global	OS_TaskDelete
 1690              		.syntax unified
 1691              		.thumb
 1692              		.thumb_func
 1693              		.fpu fpv4-sp-d16
 1694              		.type	OS_TaskDelete, %function
 1695              	OS_TaskDelete:
 1696              		@ args = 0, pretend = 0, frame = 0
 1697              		@ frame_needed = 0, uses_anonymous_args = 0
 1698 0000 2DE9F041 		push	{r4, r5, r6, r7, r8, lr}
 1699 0004 0446     		mov	r4, r0
 1700              		.syntax unified
 1701              	@ 345 "CMSIS/include/cmsis_gcc.h" 1
 1702 0006 EFF31087 		MRS r7, primask
 1703              	@ 0 "" 2
 1704              	@ 128 "CMSIS/include/cmsis_gcc.h" 1
 1705 000a 72B6     		cpsid i
 1706              	@ 0 "" 2
 1707              		.thumb
 1708              		.syntax unified
 1709 000c 3F28     		cmp	r0, #63
 1710 000e 1BD8     		bhi	.L251
ARM GAS  C:\Users\SZYMAN~1.RAJ\AppData\Local\Temp\ccUaWHFB.s 			page 31


 1711 0010 104D     		ldr	r5, .L259
 1712 0012 7023     		movs	r3, #112
 1713 0014 03FB0053 		mla	r3, r3, r0, r5
 1714 0018 DA6D     		ldr	r2, [r3, #92]
 1715 001a C2B1     		cbz	r2, .L252
 1716 001c DB6E     		ldr	r3, [r3, #108]
 1717 001e 03B1     		cbz	r3, .L249
 1718 0020 9847     		blx	r3
 1719              	.L249:
 1720 0022 7026     		movs	r6, #112
 1721 0024 06FB0458 		mla	r8, r6, r4, r5
 1722 0028 4046     		mov	r0, r8
 1723 002a FFF7FEFF 		bl	tsk_kill
 1724 002e D8F86400 		ldr	r0, [r8, #100]
 1725 0032 08B1     		cbz	r0, .L250
 1726 0034 FFF7FEFF 		bl	core_sys_free
 1727              	.L250:
 1728 0038 06FB0454 		mla	r4, r6, r4, r5
 1729 003c 0020     		movs	r0, #0
 1730 003e E065     		str	r0, [r4, #92]
 1731              	.L248:
 1732              		.syntax unified
 1733              	@ 373 "CMSIS/include/cmsis_gcc.h" 1
 1734 0040 87F31088 		MSR primask, r7
 1735              	@ 0 "" 2
 1736              		.thumb
 1737              		.syntax unified
 1738 0044 BDE8F081 		pop	{r4, r5, r6, r7, r8, pc}
 1739              	.L251:
 1740 0048 6FF00F00 		mvn	r0, #15
 1741 004c F8E7     		b	.L248
 1742              	.L252:
 1743 004e 6FF00100 		mvn	r0, #1
 1744 0052 F5E7     		b	.L248
 1745              	.L260:
 1746              		.align	2
 1747              	.L259:
 1748 0054 00000000 		.word	.LANCHOR8
 1749              		.size	OS_TaskDelete, .-OS_TaskDelete
 1750              		.section	.text.OS_TaskExit,"ax",%progbits
 1751              		.align	1
 1752              		.global	OS_TaskExit
 1753              		.syntax unified
 1754              		.thumb
 1755              		.thumb_func
 1756              		.fpu fpv4-sp-d16
 1757              		.type	OS_TaskExit, %function
 1758              	OS_TaskExit:
 1759              		@ Volatile: function does not return.
 1760              		@ args = 0, pretend = 0, frame = 0
 1761              		@ frame_needed = 0, uses_anonymous_args = 0
 1762 0000 08B5     		push	{r3, lr}
 1763 0002 FFF7FEFF 		bl	tsk_stop
 1764              		.size	OS_TaskExit, .-OS_TaskExit
 1765              		.section	.text.OS_TaskDelay,"ax",%progbits
 1766              		.align	1
 1767              		.global	OS_TaskDelay
ARM GAS  C:\Users\SZYMAN~1.RAJ\AppData\Local\Temp\ccUaWHFB.s 			page 32


 1768              		.syntax unified
 1769              		.thumb
 1770              		.thumb_func
 1771              		.fpu fpv4-sp-d16
 1772              		.type	OS_TaskDelay, %function
 1773              	OS_TaskDelay:
 1774              		@ args = 0, pretend = 0, frame = 0
 1775              		@ frame_needed = 0, uses_anonymous_args = 0
 1776 0000 0749     		ldr	r1, .L266
 1777 0002 08B5     		push	{r3, lr}
 1778 0004 4143     		muls	r1, r0, r1
 1779 0006 4FF47A73 		mov	r3, #1000
 1780 000a 0648     		ldr	r0, .L266+4
 1781 000c B1FBF3F1 		udiv	r1, r1, r3
 1782 0010 FFF7FEFF 		bl	tmr_waitFor
 1783 0014 831C     		adds	r3, r0, #2
 1784 0016 14BF     		ite	ne
 1785 0018 4FF0FF30 		movne	r0, #-1
 1786 001c 0020     		moveq	r0, #0
 1787 001e 08BD     		pop	{r3, pc}
 1788              	.L267:
 1789              		.align	2
 1790              	.L266:
 1791 0020 40420F00 		.word	1000000
 1792 0024 00000000 		.word	WAIT
 1793              		.size	OS_TaskDelay, .-OS_TaskDelay
 1794              		.section	.text.OS_TaskSetPriority,"ax",%progbits
 1795              		.align	1
 1796              		.global	OS_TaskSetPriority
 1797              		.syntax unified
 1798              		.thumb
 1799              		.thumb_func
 1800              		.fpu fpv4-sp-d16
 1801              		.type	OS_TaskSetPriority, %function
 1802              	OS_TaskSetPriority:
 1803              		@ args = 0, pretend = 0, frame = 0
 1804              		@ frame_needed = 0, uses_anonymous_args = 0
 1805 0000 10B5     		push	{r4, lr}
 1806              		.syntax unified
 1807              	@ 345 "CMSIS/include/cmsis_gcc.h" 1
 1808 0002 EFF31084 		MRS r4, primask
 1809              	@ 0 "" 2
 1810              	@ 128 "CMSIS/include/cmsis_gcc.h" 1
 1811 0006 72B6     		cpsid i
 1812              	@ 0 "" 2
 1813              		.thumb
 1814              		.syntax unified
 1815 0008 3F28     		cmp	r0, #63
 1816 000a 10D8     		bhi	.L270
 1817 000c 0C4B     		ldr	r3, .L273
 1818 000e 7022     		movs	r2, #112
 1819 0010 02FB0030 		mla	r0, r2, r0, r3
 1820 0014 C36D     		ldr	r3, [r0, #92]
 1821 0016 6BB1     		cbz	r3, .L271
 1822 0018 4B1E     		subs	r3, r1, #1
 1823 001a FE2B     		cmp	r3, #254
 1824 001c 0DD8     		bhi	.L272
ARM GAS  C:\Users\SZYMAN~1.RAJ\AppData\Local\Temp\ccUaWHFB.s 			page 33


 1825 001e C943     		mvns	r1, r1
 1826 0020 8162     		str	r1, [r0, #40]
 1827 0022 FFF7FEFF 		bl	core_tsk_prio
 1828 0026 0020     		movs	r0, #0
 1829              	.L269:
 1830              		.syntax unified
 1831              	@ 373 "CMSIS/include/cmsis_gcc.h" 1
 1832 0028 84F31088 		MSR primask, r4
 1833              	@ 0 "" 2
 1834              		.thumb
 1835              		.syntax unified
 1836 002c 10BD     		pop	{r4, pc}
 1837              	.L270:
 1838 002e 6FF00F00 		mvn	r0, #15
 1839 0032 F9E7     		b	.L269
 1840              	.L271:
 1841 0034 6FF00100 		mvn	r0, #1
 1842 0038 F6E7     		b	.L269
 1843              	.L272:
 1844 003a 6FF01200 		mvn	r0, #18
 1845 003e F3E7     		b	.L269
 1846              	.L274:
 1847              		.align	2
 1848              	.L273:
 1849 0040 00000000 		.word	.LANCHOR8
 1850              		.size	OS_TaskSetPriority, .-OS_TaskSetPriority
 1851              		.section	.text.OS_TaskRegister,"ax",%progbits
 1852              		.align	1
 1853              		.global	OS_TaskRegister
 1854              		.syntax unified
 1855              		.thumb
 1856              		.thumb_func
 1857              		.fpu fpv4-sp-d16
 1858              		.type	OS_TaskRegister, %function
 1859              	OS_TaskRegister:
 1860              		@ args = 0, pretend = 0, frame = 0
 1861              		@ frame_needed = 0, uses_anonymous_args = 0
 1862              		@ link register save eliminated.
 1863 0000 0020     		movs	r0, #0
 1864 0002 7047     		bx	lr
 1865              		.size	OS_TaskRegister, .-OS_TaskRegister
 1866              		.section	.text.OS_TaskGetId,"ax",%progbits
 1867              		.align	1
 1868              		.global	OS_TaskGetId
 1869              		.syntax unified
 1870              		.thumb
 1871              		.thumb_func
 1872              		.fpu fpv4-sp-d16
 1873              		.type	OS_TaskGetId, %function
 1874              	OS_TaskGetId:
 1875              		@ args = 0, pretend = 0, frame = 0
 1876              		@ frame_needed = 0, uses_anonymous_args = 0
 1877              		@ link register save eliminated.
 1878 0000 074B     		ldr	r3, .L279
 1879 0002 1868     		ldr	r0, [r3]
 1880 0004 074B     		ldr	r3, .L279+4
 1881 0006 C01A     		subs	r0, r0, r3
ARM GAS  C:\Users\SZYMAN~1.RAJ\AppData\Local\Temp\ccUaWHFB.s 			page 34


 1882 0008 0311     		asrs	r3, r0, #4
 1883 000a 0748     		ldr	r0, .L279+8
 1884 000c 5843     		muls	r0, r3, r0
 1885 000e 7023     		movs	r3, #112
 1886 0010 B0FBF3F0 		udiv	r0, r0, r3
 1887 0014 4028     		cmp	r0, #64
 1888 0016 28BF     		it	cs
 1889 0018 6FF00F00 		mvncs	r0, #15
 1890 001c 7047     		bx	lr
 1891              	.L280:
 1892 001e 00BF     		.align	2
 1893              	.L279:
 1894 0020 00000000 		.word	System
 1895 0024 00000000 		.word	.LANCHOR8
 1896 0028 B76DDBB6 		.word	-1227133513
 1897              		.size	OS_TaskGetId, .-OS_TaskGetId
 1898              		.section	.text.OS_QueueCreate,"ax",%progbits
 1899              		.align	1
 1900              		.global	OS_QueueCreate
 1901              		.syntax unified
 1902              		.thumb
 1903              		.thumb_func
 1904              		.fpu fpv4-sp-d16
 1905              		.type	OS_QueueCreate, %function
 1906              	OS_QueueCreate:
 1907              		@ args = 4, pretend = 0, frame = 8
 1908              		@ frame_needed = 0, uses_anonymous_args = 0
 1909 0000 2DE9F74F 		push	{r0, r1, r2, r4, r5, r6, r7, r8, r9, r10, fp, lr}
 1910 0004 8346     		mov	fp, r0
 1911 0006 0F46     		mov	r7, r1
 1912 0008 9046     		mov	r8, r2
 1913 000a 9946     		mov	r9, r3
 1914              		.syntax unified
 1915              	@ 345 "CMSIS/include/cmsis_gcc.h" 1
 1916 000c EFF3108A 		MRS r10, primask
 1917              	@ 0 "" 2
 1918              	@ 128 "CMSIS/include/cmsis_gcc.h" 1
 1919 0010 72B6     		cpsid i
 1920              	@ 0 "" 2
 1921              		.thumb
 1922              		.syntax unified
 1923 0012 0028     		cmp	r0, #0
 1924 0014 4BD0     		beq	.L290
 1925 0016 0029     		cmp	r1, #0
 1926 0018 49D0     		beq	.L290
 1927 001a 0846     		mov	r0, r1
 1928 001c FFF7FEFF 		bl	strlen
 1929 0020 1328     		cmp	r0, #19
 1930 0022 47D8     		bhi	.L291
 1931 0024 264C     		ldr	r4, .L301
 1932 0026 2646     		mov	r6, r4
 1933 0028 04F56063 		add	r3, r4, #3584
 1934              	.L285:
 1935 002c 626B     		ldr	r2, [r4, #52]
 1936 002e 3AB1     		cbz	r2, .L283
 1937 0030 3946     		mov	r1, r7
 1938 0032 04F11C00 		add	r0, r4, #28
ARM GAS  C:\Users\SZYMAN~1.RAJ\AppData\Local\Temp\ccUaWHFB.s 			page 35


 1939 0036 0193     		str	r3, [sp, #4]
 1940 0038 FFF7FEFF 		bl	strcmp
 1941 003c 019B     		ldr	r3, [sp, #4]
 1942 003e 58B1     		cbz	r0, .L284
 1943              	.L283:
 1944 0040 3834     		adds	r4, r4, #56
 1945 0042 9C42     		cmp	r4, r3
 1946 0044 F2D3     		bcc	.L285
 1947              	.L300:
 1948 0046 1E4D     		ldr	r5, .L301
 1949              	.L288:
 1950 0048 6C6B     		ldr	r4, [r5, #52]
 1951 004a 54B1     		cbz	r4, .L287
 1952 004c 3835     		adds	r5, r5, #56
 1953 004e 9D42     		cmp	r5, r3
 1954 0050 FAD3     		bcc	.L288
 1955              	.L293:
 1956 0052 6FF00D00 		mvn	r0, #13
 1957 0056 25E0     		b	.L282
 1958              	.L284:
 1959 0058 9C42     		cmp	r4, r3
 1960 005a F4D2     		bcs	.L300
 1961 005c 6FF00E00 		mvn	r0, #14
 1962 0060 20E0     		b	.L282
 1963              	.L287:
 1964 0062 9D42     		cmp	r5, r3
 1965 0064 F5D2     		bcs	.L293
 1966 0066 09FB08F0 		mul	r0, r9, r8
 1967 006a FFF7FEFF 		bl	core_sys_alloc
 1968 006e 0346     		mov	r3, r0
 1969 0070 18B3     		cbz	r0, .L294
 1970 0072 AE1B     		subs	r6, r5, r6
 1971 0074 F210     		asrs	r2, r6, #3
 1972 0076 134E     		ldr	r6, .L301+4
 1973 0078 4146     		mov	r1, r8
 1974 007a 5643     		muls	r6, r2, r6
 1975 007c 2846     		mov	r0, r5
 1976 007e 3822     		movs	r2, #56
 1977 0080 B6FBF2F6 		udiv	r6, r6, r2
 1978 0084 4A46     		mov	r2, r9
 1979 0086 CBF80060 		str	r6, [fp]
 1980 008a FFF7FEFF 		bl	box_init
 1981 008e 3946     		mov	r1, r7
 1982 0090 05F11C00 		add	r0, r5, #28
 1983 0094 FFF7FEFF 		bl	strcpy
 1984 0098 FFF7FEFF 		bl	OS_TaskGetId
 1985 009c 0123     		movs	r3, #1
 1986 009e 2863     		str	r0, [r5, #48]
 1987 00a0 6B63     		str	r3, [r5, #52]
 1988 00a2 2046     		mov	r0, r4
 1989              	.L282:
 1990              		.syntax unified
 1991              	@ 373 "CMSIS/include/cmsis_gcc.h" 1
 1992 00a4 8AF31088 		MSR primask, r10
 1993              	@ 0 "" 2
 1994              		.thumb
 1995              		.syntax unified
ARM GAS  C:\Users\SZYMAN~1.RAJ\AppData\Local\Temp\ccUaWHFB.s 			page 36


 1996 00a8 03B0     		add	sp, sp, #12
 1997              		@ sp needed
 1998 00aa BDE8F08F 		pop	{r4, r5, r6, r7, r8, r9, r10, fp, pc}
 1999              	.L290:
 2000 00ae 6FF00100 		mvn	r0, #1
 2001 00b2 F7E7     		b	.L282
 2002              	.L291:
 2003 00b4 6FF00C00 		mvn	r0, #12
 2004 00b8 F4E7     		b	.L282
 2005              	.L294:
 2006 00ba 4FF0FF30 		mov	r0, #-1
 2007 00be F1E7     		b	.L282
 2008              	.L302:
 2009              		.align	2
 2010              	.L301:
 2011 00c0 00000000 		.word	.LANCHOR4
 2012 00c4 B76DDBB6 		.word	-1227133513
 2013              		.size	OS_QueueCreate, .-OS_QueueCreate
 2014              		.section	.text.OS_BinSemCreate,"ax",%progbits
 2015              		.align	1
 2016              		.global	OS_BinSemCreate
 2017              		.syntax unified
 2018              		.thumb
 2019              		.thumb_func
 2020              		.fpu fpv4-sp-d16
 2021              		.type	OS_BinSemCreate, %function
 2022              	OS_BinSemCreate:
 2023              		@ args = 0, pretend = 0, frame = 0
 2024              		@ frame_needed = 0, uses_anonymous_args = 0
 2025 0000 2DE9F84F 		push	{r3, r4, r5, r6, r7, r8, r9, r10, fp, lr}
 2026 0004 0746     		mov	r7, r0
 2027 0006 0E46     		mov	r6, r1
 2028 0008 9146     		mov	r9, r2
 2029              		.syntax unified
 2030              	@ 345 "CMSIS/include/cmsis_gcc.h" 1
 2031 000a EFF31088 		MRS r8, primask
 2032              	@ 0 "" 2
 2033              	@ 128 "CMSIS/include/cmsis_gcc.h" 1
 2034 000e 72B6     		cpsid i
 2035              	@ 0 "" 2
 2036              		.thumb
 2037              		.syntax unified
 2038 0010 0028     		cmp	r0, #0
 2039 0012 44D0     		beq	.L312
 2040 0014 0029     		cmp	r1, #0
 2041 0016 42D0     		beq	.L312
 2042 0018 0846     		mov	r0, r1
 2043 001a FFF7FEFF 		bl	strlen
 2044 001e 1328     		cmp	r0, #19
 2045 0020 40D8     		bhi	.L313
 2046 0022 224C     		ldr	r4, .L322
 2047 0024 A246     		mov	r10, r4
 2048 0026 04F5487B 		add	fp, r4, #800
 2049              	.L307:
 2050 002a 636A     		ldr	r3, [r4, #36]
 2051 002c 2BB1     		cbz	r3, .L305
 2052 002e 3146     		mov	r1, r6
ARM GAS  C:\Users\SZYMAN~1.RAJ\AppData\Local\Temp\ccUaWHFB.s 			page 37


 2053 0030 04F10C00 		add	r0, r4, #12
 2054 0034 FFF7FEFF 		bl	strcmp
 2055 0038 58B1     		cbz	r0, .L306
 2056              	.L305:
 2057 003a 2834     		adds	r4, r4, #40
 2058 003c 5C45     		cmp	r4, fp
 2059 003e F4D3     		bcc	.L307
 2060              	.L321:
 2061 0040 1A4C     		ldr	r4, .L322
 2062              	.L310:
 2063 0042 656A     		ldr	r5, [r4, #36]
 2064 0044 55B1     		cbz	r5, .L309
 2065 0046 2834     		adds	r4, r4, #40
 2066 0048 5C45     		cmp	r4, fp
 2067 004a FAD3     		bcc	.L310
 2068              	.L315:
 2069 004c 6FF00D00 		mvn	r0, #13
 2070 0050 21E0     		b	.L304
 2071              	.L306:
 2072 0052 5C45     		cmp	r4, fp
 2073 0054 F4D2     		bcs	.L321
 2074 0056 6FF00E00 		mvn	r0, #14
 2075 005a 1CE0     		b	.L304
 2076              	.L309:
 2077 005c 5C45     		cmp	r4, fp
 2078 005e F5D2     		bcs	.L315
 2079 0060 A4EB0A0A 		sub	r10, r4, r10
 2080 0064 124B     		ldr	r3, .L322+4
 2081 0066 4FEAEA0A 		asr	r10, r10, #3
 2082 006a 2822     		movs	r2, #40
 2083 006c 4946     		mov	r1, r9
 2084 006e 2046     		mov	r0, r4
 2085 0070 03FB0AF3 		mul	r3, r3, r10
 2086 0074 B3FBF2F3 		udiv	r3, r3, r2
 2087 0078 0122     		movs	r2, #1
 2088 007a 3B60     		str	r3, [r7]
 2089 007c FFF7FEFF 		bl	sem_init
 2090 0080 3146     		mov	r1, r6
 2091 0082 04F10C00 		add	r0, r4, #12
 2092 0086 FFF7FEFF 		bl	strcpy
 2093 008a FFF7FEFF 		bl	OS_TaskGetId
 2094 008e 0123     		movs	r3, #1
 2095 0090 2062     		str	r0, [r4, #32]
 2096 0092 6362     		str	r3, [r4, #36]
 2097 0094 2846     		mov	r0, r5
 2098              	.L304:
 2099              		.syntax unified
 2100              	@ 373 "CMSIS/include/cmsis_gcc.h" 1
 2101 0096 88F31088 		MSR primask, r8
 2102              	@ 0 "" 2
 2103              		.thumb
 2104              		.syntax unified
 2105 009a BDE8F88F 		pop	{r3, r4, r5, r6, r7, r8, r9, r10, fp, pc}
 2106              	.L312:
 2107 009e 6FF00100 		mvn	r0, #1
 2108 00a2 F8E7     		b	.L304
 2109              	.L313:
ARM GAS  C:\Users\SZYMAN~1.RAJ\AppData\Local\Temp\ccUaWHFB.s 			page 38


 2110 00a4 6FF00C00 		mvn	r0, #12
 2111 00a8 F5E7     		b	.L304
 2112              	.L323:
 2113 00aa 00BF     		.align	2
 2114              	.L322:
 2115 00ac 00000000 		.word	.LANCHOR5
 2116 00b0 CDCCCCCC 		.word	-858993459
 2117              		.size	OS_BinSemCreate, .-OS_BinSemCreate
 2118              		.section	.text.OS_CountSemCreate,"ax",%progbits
 2119              		.align	1
 2120              		.global	OS_CountSemCreate
 2121              		.syntax unified
 2122              		.thumb
 2123              		.thumb_func
 2124              		.fpu fpv4-sp-d16
 2125              		.type	OS_CountSemCreate, %function
 2126              	OS_CountSemCreate:
 2127              		@ args = 0, pretend = 0, frame = 0
 2128              		@ frame_needed = 0, uses_anonymous_args = 0
 2129 0000 2DE9F84F 		push	{r3, r4, r5, r6, r7, r8, r9, r10, fp, lr}
 2130 0004 0746     		mov	r7, r0
 2131 0006 0E46     		mov	r6, r1
 2132 0008 9146     		mov	r9, r2
 2133              		.syntax unified
 2134              	@ 345 "CMSIS/include/cmsis_gcc.h" 1
 2135 000a EFF31088 		MRS r8, primask
 2136              	@ 0 "" 2
 2137              	@ 128 "CMSIS/include/cmsis_gcc.h" 1
 2138 000e 72B6     		cpsid i
 2139              	@ 0 "" 2
 2140              		.thumb
 2141              		.syntax unified
 2142 0010 0028     		cmp	r0, #0
 2143 0012 45D0     		beq	.L333
 2144 0014 0029     		cmp	r1, #0
 2145 0016 43D0     		beq	.L333
 2146 0018 0846     		mov	r0, r1
 2147 001a FFF7FEFF 		bl	strlen
 2148 001e 1328     		cmp	r0, #19
 2149 0020 41D8     		bhi	.L334
 2150 0022 224C     		ldr	r4, .L343
 2151 0024 A246     		mov	r10, r4
 2152 0026 04F5487B 		add	fp, r4, #800
 2153              	.L328:
 2154 002a 636A     		ldr	r3, [r4, #36]
 2155 002c 2BB1     		cbz	r3, .L326
 2156 002e 3146     		mov	r1, r6
 2157 0030 04F10C00 		add	r0, r4, #12
 2158 0034 FFF7FEFF 		bl	strcmp
 2159 0038 58B1     		cbz	r0, .L327
 2160              	.L326:
 2161 003a 2834     		adds	r4, r4, #40
 2162 003c 5C45     		cmp	r4, fp
 2163 003e F4D3     		bcc	.L328
 2164              	.L342:
 2165 0040 1A4C     		ldr	r4, .L343
 2166              	.L331:
ARM GAS  C:\Users\SZYMAN~1.RAJ\AppData\Local\Temp\ccUaWHFB.s 			page 39


 2167 0042 656A     		ldr	r5, [r4, #36]
 2168 0044 55B1     		cbz	r5, .L330
 2169 0046 2834     		adds	r4, r4, #40
 2170 0048 5C45     		cmp	r4, fp
 2171 004a FAD3     		bcc	.L331
 2172              	.L336:
 2173 004c 6FF00D00 		mvn	r0, #13
 2174 0050 22E0     		b	.L325
 2175              	.L327:
 2176 0052 5C45     		cmp	r4, fp
 2177 0054 F4D2     		bcs	.L342
 2178 0056 6FF00E00 		mvn	r0, #14
 2179 005a 1DE0     		b	.L325
 2180              	.L330:
 2181 005c 5C45     		cmp	r4, fp
 2182 005e F5D2     		bcs	.L336
 2183 0060 A4EB0A0A 		sub	r10, r4, r10
 2184 0064 124B     		ldr	r3, .L343+4
 2185 0066 4FEAEA0A 		asr	r10, r10, #3
 2186 006a 2822     		movs	r2, #40
 2187 006c 4946     		mov	r1, r9
 2188 006e 2046     		mov	r0, r4
 2189 0070 03FB0AF3 		mul	r3, r3, r10
 2190 0074 B3FBF2F3 		udiv	r3, r3, r2
 2191 0078 4FF0FF32 		mov	r2, #-1
 2192 007c 3B60     		str	r3, [r7]
 2193 007e FFF7FEFF 		bl	sem_init
 2194 0082 3146     		mov	r1, r6
 2195 0084 04F10C00 		add	r0, r4, #12
 2196 0088 FFF7FEFF 		bl	strcpy
 2197 008c FFF7FEFF 		bl	OS_TaskGetId
 2198 0090 0123     		movs	r3, #1
 2199 0092 2062     		str	r0, [r4, #32]
 2200 0094 6362     		str	r3, [r4, #36]
 2201 0096 2846     		mov	r0, r5
 2202              	.L325:
 2203              		.syntax unified
 2204              	@ 373 "CMSIS/include/cmsis_gcc.h" 1
 2205 0098 88F31088 		MSR primask, r8
 2206              	@ 0 "" 2
 2207              		.thumb
 2208              		.syntax unified
 2209 009c BDE8F88F 		pop	{r3, r4, r5, r6, r7, r8, r9, r10, fp, pc}
 2210              	.L333:
 2211 00a0 6FF00100 		mvn	r0, #1
 2212 00a4 F8E7     		b	.L325
 2213              	.L334:
 2214 00a6 6FF00C00 		mvn	r0, #12
 2215 00aa F5E7     		b	.L325
 2216              	.L344:
 2217              		.align	2
 2218              	.L343:
 2219 00ac 00000000 		.word	.LANCHOR6
 2220 00b0 CDCCCCCC 		.word	-858993459
 2221              		.size	OS_CountSemCreate, .-OS_CountSemCreate
 2222              		.section	.text.OS_MutSemCreate,"ax",%progbits
 2223              		.align	1
ARM GAS  C:\Users\SZYMAN~1.RAJ\AppData\Local\Temp\ccUaWHFB.s 			page 40


 2224              		.global	OS_MutSemCreate
 2225              		.syntax unified
 2226              		.thumb
 2227              		.thumb_func
 2228              		.fpu fpv4-sp-d16
 2229              		.type	OS_MutSemCreate, %function
 2230              	OS_MutSemCreate:
 2231              		@ args = 0, pretend = 0, frame = 0
 2232              		@ frame_needed = 0, uses_anonymous_args = 0
 2233 0000 2DE9F047 		push	{r4, r5, r6, r7, r8, r9, r10, lr}
 2234 0004 8046     		mov	r8, r0
 2235 0006 0E46     		mov	r6, r1
 2236              		.syntax unified
 2237              	@ 345 "CMSIS/include/cmsis_gcc.h" 1
 2238 0008 EFF31087 		MRS r7, primask
 2239              	@ 0 "" 2
 2240              	@ 128 "CMSIS/include/cmsis_gcc.h" 1
 2241 000c 72B6     		cpsid i
 2242              	@ 0 "" 2
 2243              		.thumb
 2244              		.syntax unified
 2245 000e 0028     		cmp	r0, #0
 2246 0010 43D0     		beq	.L354
 2247 0012 0029     		cmp	r1, #0
 2248 0014 41D0     		beq	.L354
 2249 0016 0846     		mov	r0, r1
 2250 0018 FFF7FEFF 		bl	strlen
 2251 001c 1328     		cmp	r0, #19
 2252 001e 3FD8     		bhi	.L355
 2253 0020 214C     		ldr	r4, .L364
 2254 0022 A146     		mov	r9, r4
 2255 0024 04F55C7A 		add	r10, r4, #880
 2256              	.L349:
 2257 0028 A36A     		ldr	r3, [r4, #40]
 2258 002a 2BB1     		cbz	r3, .L347
 2259 002c 3146     		mov	r1, r6
 2260 002e 04F11000 		add	r0, r4, #16
 2261 0032 FFF7FEFF 		bl	strcmp
 2262 0036 58B1     		cbz	r0, .L348
 2263              	.L347:
 2264 0038 2C34     		adds	r4, r4, #44
 2265 003a 5445     		cmp	r4, r10
 2266 003c F4D3     		bcc	.L349
 2267              	.L363:
 2268 003e 1A4C     		ldr	r4, .L364
 2269              	.L352:
 2270 0040 A56A     		ldr	r5, [r4, #40]
 2271 0042 55B1     		cbz	r5, .L351
 2272 0044 2C34     		adds	r4, r4, #44
 2273 0046 5445     		cmp	r4, r10
 2274 0048 FAD3     		bcc	.L352
 2275              	.L357:
 2276 004a 6FF00D00 		mvn	r0, #13
 2277 004e 20E0     		b	.L346
 2278              	.L348:
 2279 0050 5445     		cmp	r4, r10
 2280 0052 F4D2     		bcs	.L363
ARM GAS  C:\Users\SZYMAN~1.RAJ\AppData\Local\Temp\ccUaWHFB.s 			page 41


 2281 0054 6FF00E00 		mvn	r0, #14
 2282 0058 1BE0     		b	.L346
 2283              	.L351:
 2284 005a 5445     		cmp	r4, r10
 2285 005c F5D2     		bcs	.L357
 2286 005e A4EB0909 		sub	r9, r4, r9
 2287 0062 124B     		ldr	r3, .L364+4
 2288 0064 4FEAA909 		asr	r9, r9, #2
 2289 0068 2C22     		movs	r2, #44
 2290 006a 2046     		mov	r0, r4
 2291 006c 03FB09F3 		mul	r3, r3, r9
 2292 0070 B3FBF2F3 		udiv	r3, r3, r2
 2293 0074 C8F80030 		str	r3, [r8]
 2294 0078 FFF7FEFF 		bl	mtx_init
 2295 007c 3146     		mov	r1, r6
 2296 007e 04F11000 		add	r0, r4, #16
 2297 0082 FFF7FEFF 		bl	strcpy
 2298 0086 FFF7FEFF 		bl	OS_TaskGetId
 2299 008a 0123     		movs	r3, #1
 2300 008c 6062     		str	r0, [r4, #36]
 2301 008e A362     		str	r3, [r4, #40]
 2302 0090 2846     		mov	r0, r5
 2303              	.L346:
 2304              		.syntax unified
 2305              	@ 373 "CMSIS/include/cmsis_gcc.h" 1
 2306 0092 87F31088 		MSR primask, r7
 2307              	@ 0 "" 2
 2308              		.thumb
 2309              		.syntax unified
 2310 0096 BDE8F087 		pop	{r4, r5, r6, r7, r8, r9, r10, pc}
 2311              	.L354:
 2312 009a 6FF00100 		mvn	r0, #1
 2313 009e F8E7     		b	.L346
 2314              	.L355:
 2315 00a0 6FF00C00 		mvn	r0, #12
 2316 00a4 F5E7     		b	.L346
 2317              	.L365:
 2318 00a6 00BF     		.align	2
 2319              	.L364:
 2320 00a8 00000000 		.word	.LANCHOR7
 2321 00ac A38B2EBA 		.word	-1171354717
 2322              		.size	OS_MutSemCreate, .-OS_MutSemCreate
 2323              		.section	.text.OS_TaskCreate,"ax",%progbits
 2324              		.align	1
 2325              		.global	OS_TaskCreate
 2326              		.syntax unified
 2327              		.thumb
 2328              		.thumb_func
 2329              		.fpu fpv4-sp-d16
 2330              		.type	OS_TaskCreate, %function
 2331              	OS_TaskCreate:
 2332              		@ args = 12, pretend = 0, frame = 8
 2333              		@ frame_needed = 0, uses_anonymous_args = 0
 2334 0000 2DE9F74F 		push	{r0, r1, r2, r4, r5, r6, r7, r8, r9, r10, fp, lr}
 2335 0004 0C9D     		ldr	r5, [sp, #48]
 2336 0006 8346     		mov	fp, r0
 2337 0008 8946     		mov	r9, r1
ARM GAS  C:\Users\SZYMAN~1.RAJ\AppData\Local\Temp\ccUaWHFB.s 			page 42


 2338 000a 9246     		mov	r10, r2
 2339 000c 9846     		mov	r8, r3
 2340              		.syntax unified
 2341              	@ 345 "CMSIS/include/cmsis_gcc.h" 1
 2342 000e EFF31083 		MRS r3, primask
 2343              	@ 0 "" 2
 2344              		.thumb
 2345              		.syntax unified
 2346 0012 0193     		str	r3, [sp, #4]
 2347              		.syntax unified
 2348              	@ 128 "CMSIS/include/cmsis_gcc.h" 1
 2349 0014 72B6     		cpsid i
 2350              	@ 0 "" 2
 2351              		.thumb
 2352              		.syntax unified
 2353 0016 0028     		cmp	r0, #0
 2354 0018 6DD0     		beq	.L381
 2355 001a 0029     		cmp	r1, #0
 2356 001c 6BD0     		beq	.L381
 2357 001e 002A     		cmp	r2, #0
 2358 0020 69D0     		beq	.L381
 2359 0022 0846     		mov	r0, r1
 2360 0024 FFF7FEFF 		bl	strlen
 2361 0028 1328     		cmp	r0, #19
 2362 002a 67D8     		bhi	.L382
 2363 002c 0D9B     		ldr	r3, [sp, #52]
 2364 002e 013B     		subs	r3, r3, #1
 2365 0030 FE2B     		cmp	r3, #254
 2366 0032 66D8     		bhi	.L383
 2367 0034 B8F1000F 		cmp	r8, #0
 2368 0038 08D0     		beq	.L385
 2369 003a 3DB9     		cbnz	r5, .L385
 2370              	.L377:
 2371 003c 4FF0FF30 		mov	r0, #-1
 2372              	.L367:
 2373 0040 019B     		ldr	r3, [sp, #4]
 2374              		.syntax unified
 2375              	@ 373 "CMSIS/include/cmsis_gcc.h" 1
 2376 0042 83F31088 		MSR primask, r3
 2377              	@ 0 "" 2
 2378              		.thumb
 2379              		.syntax unified
 2380 0046 03B0     		add	sp, sp, #12
 2381              		@ sp needed
 2382 0048 BDE8F08F 		pop	{r4, r5, r6, r7, r8, r9, r10, fp, pc}
 2383              	.L385:
 2384 004c 2E4F     		ldr	r7, .L400
 2385 004e 2E4C     		ldr	r4, .L400
 2386 0050 07F5E056 		add	r6, r7, #7168
 2387              	.L371:
 2388 0054 E36D     		ldr	r3, [r4, #92]
 2389 0056 2BB1     		cbz	r3, .L369
 2390 0058 4946     		mov	r1, r9
 2391 005a 04F14400 		add	r0, r4, #68
 2392 005e FFF7FEFF 		bl	strcmp
 2393 0062 58B1     		cbz	r0, .L370
 2394              	.L369:
ARM GAS  C:\Users\SZYMAN~1.RAJ\AppData\Local\Temp\ccUaWHFB.s 			page 43


 2395 0064 7034     		adds	r4, r4, #112
 2396 0066 B442     		cmp	r4, r6
 2397 0068 F4D3     		bcc	.L371
 2398              	.L399:
 2399 006a 274C     		ldr	r4, .L400
 2400              	.L374:
 2401 006c E36D     		ldr	r3, [r4, #92]
 2402 006e 53B1     		cbz	r3, .L373
 2403 0070 7034     		adds	r4, r4, #112
 2404 0072 B442     		cmp	r4, r6
 2405 0074 FAD3     		bcc	.L374
 2406              	.L387:
 2407 0076 6FF00D00 		mvn	r0, #13
 2408 007a E1E7     		b	.L367
 2409              	.L370:
 2410 007c B442     		cmp	r4, r6
 2411 007e F4D2     		bcs	.L399
 2412 0080 6FF00E00 		mvn	r0, #14
 2413 0084 DCE7     		b	.L367
 2414              	.L373:
 2415 0086 B442     		cmp	r4, r6
 2416 0088 F5D2     		bcs	.L387
 2417 008a B8F1000F 		cmp	r8, #0
 2418 008e 30D1     		bne	.L388
 2419 0090 002D     		cmp	r5, #0
 2420 0092 08BF     		it	eq
 2421 0094 4FF40075 		moveq	r5, #512
 2422 0098 2846     		mov	r0, r5
 2423 009a FFF7FEFF 		bl	core_sys_alloc
 2424 009e 0646     		mov	r6, r0
 2425 00a0 0028     		cmp	r0, #0
 2426 00a2 CBD0     		beq	.L377
 2427              	.L375:
 2428 00a4 194B     		ldr	r3, .L400+4
 2429 00a6 0D99     		ldr	r1, [sp, #52]
 2430 00a8 194A     		ldr	r2, .L400+8
 2431 00aa E71B     		subs	r7, r4, r7
 2432 00ac 3F11     		asrs	r7, r7, #4
 2433 00ae 5F43     		muls	r7, r3, r7
 2434 00b0 7023     		movs	r3, #112
 2435 00b2 B7FBF3F7 		udiv	r7, r7, r3
 2436 00b6 25F00703 		bic	r3, r5, #7
 2437 00ba 3344     		add	r3, r3, r6
 2438 00bc C943     		mvns	r1, r1
 2439 00be 2046     		mov	r0, r4
 2440 00c0 CBF80070 		str	r7, [fp]
 2441 00c4 FFF7FEFF 		bl	tsk_init
 2442 00c8 4946     		mov	r1, r9
 2443 00ca 04F14400 		add	r0, r4, #68
 2444 00ce FFF7FEFF 		bl	strcpy
 2445 00d2 FFF7FEFF 		bl	OS_TaskGetId
 2446 00d6 A065     		str	r0, [r4, #88]
 2447 00d8 0020     		movs	r0, #0
 2448 00da 8045     		cmp	r8, r0
 2449 00dc 4FF00103 		mov	r3, #1
 2450 00e0 18BF     		it	ne
 2451 00e2 0646     		movne	r6, r0
ARM GAS  C:\Users\SZYMAN~1.RAJ\AppData\Local\Temp\ccUaWHFB.s 			page 44


 2452 00e4 E365     		str	r3, [r4, #92]
 2453 00e6 C4F860A0 		str	r10, [r4, #96]
 2454 00ea 6666     		str	r6, [r4, #100]
 2455 00ec A566     		str	r5, [r4, #104]
 2456 00ee E066     		str	r0, [r4, #108]
 2457 00f0 A6E7     		b	.L367
 2458              	.L388:
 2459 00f2 4646     		mov	r6, r8
 2460 00f4 D6E7     		b	.L375
 2461              	.L381:
 2462 00f6 6FF00100 		mvn	r0, #1
 2463 00fa A1E7     		b	.L367
 2464              	.L382:
 2465 00fc 6FF00C00 		mvn	r0, #12
 2466 0100 9EE7     		b	.L367
 2467              	.L383:
 2468 0102 6FF01200 		mvn	r0, #18
 2469 0106 9BE7     		b	.L367
 2470              	.L401:
 2471              		.align	2
 2472              	.L400:
 2473 0108 00000000 		.word	.LANCHOR8
 2474 010c B76DDBB6 		.word	-1227133513
 2475 0110 00000000 		.word	task_handler
 2476              		.size	OS_TaskCreate, .-OS_TaskCreate
 2477              		.section	.text.OS_TaskInstallDeleteHandler,"ax",%progbits
 2478              		.align	1
 2479              		.global	OS_TaskInstallDeleteHandler
 2480              		.syntax unified
 2481              		.thumb
 2482              		.thumb_func
 2483              		.fpu fpv4-sp-d16
 2484              		.type	OS_TaskInstallDeleteHandler, %function
 2485              	OS_TaskInstallDeleteHandler:
 2486              		@ args = 0, pretend = 0, frame = 0
 2487              		@ frame_needed = 0, uses_anonymous_args = 0
 2488 0000 10B5     		push	{r4, lr}
 2489 0002 0246     		mov	r2, r0
 2490 0004 FFF7FEFF 		bl	OS_TaskGetId
 2491              		.syntax unified
 2492              	@ 345 "CMSIS/include/cmsis_gcc.h" 1
 2493 0008 EFF31083 		MRS r3, primask
 2494              	@ 0 "" 2
 2495              	@ 128 "CMSIS/include/cmsis_gcc.h" 1
 2496 000c 72B6     		cpsid i
 2497              	@ 0 "" 2
 2498              		.thumb
 2499              		.syntax unified
 2500 000e 3F28     		cmp	r0, #63
 2501 0010 0AD8     		bhi	.L404
 2502 0012 0849     		ldr	r1, .L406
 2503 0014 7024     		movs	r4, #112
 2504 0016 04FB0010 		mla	r0, r4, r0, r1
 2505 001a C16D     		ldr	r1, [r0, #92]
 2506 001c 39B1     		cbz	r1, .L405
 2507 001e C266     		str	r2, [r0, #108]
 2508 0020 0020     		movs	r0, #0
ARM GAS  C:\Users\SZYMAN~1.RAJ\AppData\Local\Temp\ccUaWHFB.s 			page 45


 2509              	.L403:
 2510              		.syntax unified
 2511              	@ 373 "CMSIS/include/cmsis_gcc.h" 1
 2512 0022 83F31088 		MSR primask, r3
 2513              	@ 0 "" 2
 2514              		.thumb
 2515              		.syntax unified
 2516 0026 10BD     		pop	{r4, pc}
 2517              	.L404:
 2518 0028 6FF00F00 		mvn	r0, #15
 2519 002c F9E7     		b	.L403
 2520              	.L405:
 2521 002e 6FF00100 		mvn	r0, #1
 2522 0032 F6E7     		b	.L403
 2523              	.L407:
 2524              		.align	2
 2525              	.L406:
 2526 0034 00000000 		.word	.LANCHOR8
 2527              		.size	OS_TaskInstallDeleteHandler, .-OS_TaskInstallDeleteHandler
 2528              		.section	.text.OS_TaskGetIdByName,"ax",%progbits
 2529              		.align	1
 2530              		.global	OS_TaskGetIdByName
 2531              		.syntax unified
 2532              		.thumb
 2533              		.thumb_func
 2534              		.fpu fpv4-sp-d16
 2535              		.type	OS_TaskGetIdByName, %function
 2536              	OS_TaskGetIdByName:
 2537              		@ args = 0, pretend = 0, frame = 0
 2538              		@ frame_needed = 0, uses_anonymous_args = 0
 2539 0000 2DE9F843 		push	{r3, r4, r5, r6, r7, r8, r9, lr}
 2540 0004 0646     		mov	r6, r0
 2541 0006 0F46     		mov	r7, r1
 2542              		.syntax unified
 2543              	@ 345 "CMSIS/include/cmsis_gcc.h" 1
 2544 0008 EFF31085 		MRS r5, primask
 2545              	@ 0 "" 2
 2546              	@ 128 "CMSIS/include/cmsis_gcc.h" 1
 2547 000c 72B6     		cpsid i
 2548              	@ 0 "" 2
 2549              		.thumb
 2550              		.syntax unified
 2551 000e 30B3     		cbz	r0, .L414
 2552 0010 29B3     		cbz	r1, .L414
 2553 0012 0846     		mov	r0, r1
 2554 0014 FFF7FEFF 		bl	strlen
 2555 0018 1328     		cmp	r0, #19
 2556 001a 23D8     		bhi	.L415
 2557 001c 134C     		ldr	r4, .L421
 2558 001e A146     		mov	r9, r4
 2559 0020 04F5E058 		add	r8, r4, #7168
 2560              	.L412:
 2561 0024 E36D     		ldr	r3, [r4, #92]
 2562 0026 2BB1     		cbz	r3, .L410
 2563 0028 3946     		mov	r1, r7
 2564 002a 04F14400 		add	r0, r4, #68
 2565 002e FFF7FEFF 		bl	strcmp
ARM GAS  C:\Users\SZYMAN~1.RAJ\AppData\Local\Temp\ccUaWHFB.s 			page 46


 2566 0032 28B1     		cbz	r0, .L411
 2567              	.L410:
 2568 0034 7034     		adds	r4, r4, #112
 2569 0036 4445     		cmp	r4, r8
 2570 0038 F4D3     		bcc	.L412
 2571              	.L416:
 2572 003a 6FF01000 		mvn	r0, #16
 2573 003e 0AE0     		b	.L409
 2574              	.L411:
 2575 0040 4445     		cmp	r4, r8
 2576 0042 FAD2     		bcs	.L416
 2577 0044 0A4B     		ldr	r3, .L421+4
 2578 0046 A4EB0904 		sub	r4, r4, r9
 2579 004a 2411     		asrs	r4, r4, #4
 2580 004c 5C43     		muls	r4, r3, r4
 2581 004e 7023     		movs	r3, #112
 2582 0050 B4FBF3F4 		udiv	r4, r4, r3
 2583 0054 3460     		str	r4, [r6]
 2584              	.L409:
 2585              		.syntax unified
 2586              	@ 373 "CMSIS/include/cmsis_gcc.h" 1
 2587 0056 85F31088 		MSR primask, r5
 2588              	@ 0 "" 2
 2589              		.thumb
 2590              		.syntax unified
 2591 005a BDE8F883 		pop	{r3, r4, r5, r6, r7, r8, r9, pc}
 2592              	.L414:
 2593 005e 6FF00100 		mvn	r0, #1
 2594 0062 F8E7     		b	.L409
 2595              	.L415:
 2596 0064 6FF00C00 		mvn	r0, #12
 2597 0068 F5E7     		b	.L409
 2598              	.L422:
 2599 006a 00BF     		.align	2
 2600              	.L421:
 2601 006c 00000000 		.word	.LANCHOR8
 2602 0070 B76DDBB6 		.word	-1227133513
 2603              		.size	OS_TaskGetIdByName, .-OS_TaskGetIdByName
 2604              		.section	.text.OS_TaskGetInfo,"ax",%progbits
 2605              		.align	1
 2606              		.global	OS_TaskGetInfo
 2607              		.syntax unified
 2608              		.thumb
 2609              		.thumb_func
 2610              		.fpu fpv4-sp-d16
 2611              		.type	OS_TaskGetInfo, %function
 2612              	OS_TaskGetInfo:
 2613              		@ args = 0, pretend = 0, frame = 0
 2614              		@ frame_needed = 0, uses_anonymous_args = 0
 2615 0000 38B5     		push	{r3, r4, r5, lr}
 2616 0002 0B46     		mov	r3, r1
 2617              		.syntax unified
 2618              	@ 345 "CMSIS/include/cmsis_gcc.h" 1
 2619 0004 EFF31085 		MRS r5, primask
 2620              	@ 0 "" 2
 2621              	@ 128 "CMSIS/include/cmsis_gcc.h" 1
 2622 0008 72B6     		cpsid i
ARM GAS  C:\Users\SZYMAN~1.RAJ\AppData\Local\Temp\ccUaWHFB.s 			page 47


 2623              	@ 0 "" 2
 2624              		.thumb
 2625              		.syntax unified
 2626 000a 3F28     		cmp	r0, #63
 2627 000c 17D8     		bhi	.L425
 2628 000e C9B1     		cbz	r1, .L427
 2629 0010 7022     		movs	r2, #112
 2630 0012 0E49     		ldr	r1, .L428
 2631 0014 5043     		muls	r0, r2, r0
 2632 0016 0C18     		adds	r4, r1, r0
 2633 0018 E26D     		ldr	r2, [r4, #92]
 2634 001a 9AB1     		cbz	r2, .L427
 2635 001c 4430     		adds	r0, r0, #68
 2636 001e 0144     		add	r1, r1, r0
 2637 0020 1846     		mov	r0, r3
 2638 0022 FFF7FEFF 		bl	strcpy
 2639 0026 A26D     		ldr	r2, [r4, #88]
 2640 0028 4261     		str	r2, [r0, #20]
 2641 002a A26E     		ldr	r2, [r4, #104]
 2642 002c 8261     		str	r2, [r0, #24]
 2643 002e A26A     		ldr	r2, [r4, #40]
 2644 0030 0462     		str	r4, [r0, #32]
 2645 0032 D243     		mvns	r2, r2
 2646 0034 C261     		str	r2, [r0, #28]
 2647 0036 0020     		movs	r0, #0
 2648              	.L424:
 2649              		.syntax unified
 2650              	@ 373 "CMSIS/include/cmsis_gcc.h" 1
 2651 0038 85F31088 		MSR primask, r5
 2652              	@ 0 "" 2
 2653              		.thumb
 2654              		.syntax unified
 2655 003c 38BD     		pop	{r3, r4, r5, pc}
 2656              	.L425:
 2657 003e 6FF00F00 		mvn	r0, #15
 2658 0042 F9E7     		b	.L424
 2659              	.L427:
 2660 0044 6FF00100 		mvn	r0, #1
 2661 0048 F6E7     		b	.L424
 2662              	.L429:
 2663 004a 00BF     		.align	2
 2664              	.L428:
 2665 004c 00000000 		.word	.LANCHOR8
 2666              		.size	OS_TaskGetInfo, .-OS_TaskGetInfo
 2667              		.section	.text.OS_ExcAttachHandler,"ax",%progbits
 2668              		.align	1
 2669              		.global	OS_ExcAttachHandler
 2670              		.syntax unified
 2671              		.thumb
 2672              		.thumb_func
 2673              		.fpu fpv4-sp-d16
 2674              		.type	OS_ExcAttachHandler, %function
 2675              	OS_ExcAttachHandler:
 2676              		@ args = 0, pretend = 0, frame = 0
 2677              		@ frame_needed = 0, uses_anonymous_args = 0
 2678              		@ link register save eliminated.
 2679 0000 6FF01B00 		mvn	r0, #27
ARM GAS  C:\Users\SZYMAN~1.RAJ\AppData\Local\Temp\ccUaWHFB.s 			page 48


 2680 0004 7047     		bx	lr
 2681              		.size	OS_ExcAttachHandler, .-OS_ExcAttachHandler
 2682              		.section	.text.OS_ExcEnable,"ax",%progbits
 2683              		.align	1
 2684              		.global	OS_ExcEnable
 2685              		.syntax unified
 2686              		.thumb
 2687              		.thumb_func
 2688              		.fpu fpv4-sp-d16
 2689              		.type	OS_ExcEnable, %function
 2690              	OS_ExcEnable:
 2691              		@ args = 0, pretend = 0, frame = 0
 2692              		@ frame_needed = 0, uses_anonymous_args = 0
 2693              		@ link register save eliminated.
 2694 0000 6FF01B00 		mvn	r0, #27
 2695 0004 7047     		bx	lr
 2696              		.size	OS_ExcEnable, .-OS_ExcEnable
 2697              		.section	.text.OS_ExcDisable,"ax",%progbits
 2698              		.align	1
 2699              		.global	OS_ExcDisable
 2700              		.syntax unified
 2701              		.thumb
 2702              		.thumb_func
 2703              		.fpu fpv4-sp-d16
 2704              		.type	OS_ExcDisable, %function
 2705              	OS_ExcDisable:
 2706              		@ args = 0, pretend = 0, frame = 0
 2707              		@ frame_needed = 0, uses_anonymous_args = 0
 2708              		@ link register save eliminated.
 2709 0000 6FF01B00 		mvn	r0, #27
 2710 0004 7047     		bx	lr
 2711              		.size	OS_ExcDisable, .-OS_ExcDisable
 2712              		.section	.text.OS_FPUExcAttachHandler,"ax",%progbits
 2713              		.align	1
 2714              		.global	OS_FPUExcAttachHandler
 2715              		.syntax unified
 2716              		.thumb
 2717              		.thumb_func
 2718              		.fpu fpv4-sp-d16
 2719              		.type	OS_FPUExcAttachHandler, %function
 2720              	OS_FPUExcAttachHandler:
 2721              		@ args = 0, pretend = 0, frame = 0
 2722              		@ frame_needed = 0, uses_anonymous_args = 0
 2723              		@ link register save eliminated.
 2724 0000 6FF01B00 		mvn	r0, #27
 2725 0004 7047     		bx	lr
 2726              		.size	OS_FPUExcAttachHandler, .-OS_FPUExcAttachHandler
 2727              		.section	.text.OS_FPUExcEnable,"ax",%progbits
 2728              		.align	1
 2729              		.global	OS_FPUExcEnable
 2730              		.syntax unified
 2731              		.thumb
 2732              		.thumb_func
 2733              		.fpu fpv4-sp-d16
 2734              		.type	OS_FPUExcEnable, %function
 2735              	OS_FPUExcEnable:
 2736              		@ args = 0, pretend = 0, frame = 0
ARM GAS  C:\Users\SZYMAN~1.RAJ\AppData\Local\Temp\ccUaWHFB.s 			page 49


 2737              		@ frame_needed = 0, uses_anonymous_args = 0
 2738              		@ link register save eliminated.
 2739 0000 6FF01B00 		mvn	r0, #27
 2740 0004 7047     		bx	lr
 2741              		.size	OS_FPUExcEnable, .-OS_FPUExcEnable
 2742              		.section	.text.OS_FPUExcDisable,"ax",%progbits
 2743              		.align	1
 2744              		.global	OS_FPUExcDisable
 2745              		.syntax unified
 2746              		.thumb
 2747              		.thumb_func
 2748              		.fpu fpv4-sp-d16
 2749              		.type	OS_FPUExcDisable, %function
 2750              	OS_FPUExcDisable:
 2751              		@ args = 0, pretend = 0, frame = 0
 2752              		@ frame_needed = 0, uses_anonymous_args = 0
 2753              		@ link register save eliminated.
 2754 0000 6FF01B00 		mvn	r0, #27
 2755 0004 7047     		bx	lr
 2756              		.size	OS_FPUExcDisable, .-OS_FPUExcDisable
 2757              		.section	.text.OS_FPUExcSetMask,"ax",%progbits
 2758              		.align	1
 2759              		.global	OS_FPUExcSetMask
 2760              		.syntax unified
 2761              		.thumb
 2762              		.thumb_func
 2763              		.fpu fpv4-sp-d16
 2764              		.type	OS_FPUExcSetMask, %function
 2765              	OS_FPUExcSetMask:
 2766              		@ args = 0, pretend = 0, frame = 0
 2767              		@ frame_needed = 0, uses_anonymous_args = 0
 2768              		@ link register save eliminated.
 2769 0000 6FF01B00 		mvn	r0, #27
 2770 0004 7047     		bx	lr
 2771              		.size	OS_FPUExcSetMask, .-OS_FPUExcSetMask
 2772              		.section	.text.OS_FPUExcGetMask,"ax",%progbits
 2773              		.align	1
 2774              		.global	OS_FPUExcGetMask
 2775              		.syntax unified
 2776              		.thumb
 2777              		.thumb_func
 2778              		.fpu fpv4-sp-d16
 2779              		.type	OS_FPUExcGetMask, %function
 2780              	OS_FPUExcGetMask:
 2781              		@ args = 0, pretend = 0, frame = 0
 2782              		@ frame_needed = 0, uses_anonymous_args = 0
 2783              		@ link register save eliminated.
 2784 0000 6FF01B00 		mvn	r0, #27
 2785 0004 7047     		bx	lr
 2786              		.size	OS_FPUExcGetMask, .-OS_FPUExcGetMask
 2787              		.section	.text.OS_IntAttachHandler,"ax",%progbits
 2788              		.align	1
 2789              		.global	OS_IntAttachHandler
 2790              		.syntax unified
 2791              		.thumb
 2792              		.thumb_func
 2793              		.fpu fpv4-sp-d16
ARM GAS  C:\Users\SZYMAN~1.RAJ\AppData\Local\Temp\ccUaWHFB.s 			page 50


 2794              		.type	OS_IntAttachHandler, %function
 2795              	OS_IntAttachHandler:
 2796              		@ args = 0, pretend = 0, frame = 0
 2797              		@ frame_needed = 0, uses_anonymous_args = 0
 2798              		@ link register save eliminated.
 2799 0000 6FF01B00 		mvn	r0, #27
 2800 0004 7047     		bx	lr
 2801              		.size	OS_IntAttachHandler, .-OS_IntAttachHandler
 2802              		.section	.text.OS_IntUnlock,"ax",%progbits
 2803              		.align	1
 2804              		.global	OS_IntUnlock
 2805              		.syntax unified
 2806              		.thumb
 2807              		.thumb_func
 2808              		.fpu fpv4-sp-d16
 2809              		.type	OS_IntUnlock, %function
 2810              	OS_IntUnlock:
 2811              		@ args = 0, pretend = 0, frame = 0
 2812              		@ frame_needed = 0, uses_anonymous_args = 0
 2813              		@ link register save eliminated.
 2814              		.syntax unified
 2815              	@ 345 "CMSIS/include/cmsis_gcc.h" 1
 2816 0000 EFF31083 		MRS r3, primask
 2817              	@ 0 "" 2
 2818              	@ 373 "CMSIS/include/cmsis_gcc.h" 1
 2819 0004 80F31088 		MSR primask, r0
 2820              	@ 0 "" 2
 2821              		.thumb
 2822              		.syntax unified
 2823 0008 1846     		mov	r0, r3
 2824 000a 7047     		bx	lr
 2825              		.size	OS_IntUnlock, .-OS_IntUnlock
 2826              		.section	.text.OS_IntLock,"ax",%progbits
 2827              		.align	1
 2828              		.global	OS_IntLock
 2829              		.syntax unified
 2830              		.thumb
 2831              		.thumb_func
 2832              		.fpu fpv4-sp-d16
 2833              		.type	OS_IntLock, %function
 2834              	OS_IntLock:
 2835              		@ args = 0, pretend = 0, frame = 0
 2836              		@ frame_needed = 0, uses_anonymous_args = 0
 2837              		@ link register save eliminated.
 2838              		.syntax unified
 2839              	@ 345 "CMSIS/include/cmsis_gcc.h" 1
 2840 0000 EFF31080 		MRS r0, primask
 2841              	@ 0 "" 2
 2842              	@ 128 "CMSIS/include/cmsis_gcc.h" 1
 2843 0004 72B6     		cpsid i
 2844              	@ 0 "" 2
 2845              		.thumb
 2846              		.syntax unified
 2847 0006 7047     		bx	lr
 2848              		.size	OS_IntLock, .-OS_IntLock
 2849              		.section	.text.OS_IntEnable,"ax",%progbits
 2850              		.align	1
ARM GAS  C:\Users\SZYMAN~1.RAJ\AppData\Local\Temp\ccUaWHFB.s 			page 51


 2851              		.global	OS_IntEnable
 2852              		.syntax unified
 2853              		.thumb
 2854              		.thumb_func
 2855              		.fpu fpv4-sp-d16
 2856              		.type	OS_IntEnable, %function
 2857              	OS_IntEnable:
 2858              		@ args = 0, pretend = 0, frame = 0
 2859              		@ frame_needed = 0, uses_anonymous_args = 0
 2860              		@ link register save eliminated.
 2861 0000 43B2     		sxtb	r3, r0
 2862 0002 002B     		cmp	r3, #0
 2863 0004 08DB     		blt	.L442
 2864 0006 0122     		movs	r2, #1
 2865 0008 00F01F00 		and	r0, r0, #31
 2866 000c 02FA00F0 		lsl	r0, r2, r0
 2867 0010 5B09     		lsrs	r3, r3, #5
 2868 0012 024A     		ldr	r2, .L443
 2869 0014 42F82300 		str	r0, [r2, r3, lsl #2]
 2870              	.L442:
 2871 0018 0020     		movs	r0, #0
 2872 001a 7047     		bx	lr
 2873              	.L444:
 2874              		.align	2
 2875              	.L443:
 2876 001c 00E100E0 		.word	-536813312
 2877              		.size	OS_IntEnable, .-OS_IntEnable
 2878              		.section	.text.OS_IntDisable,"ax",%progbits
 2879              		.align	1
 2880              		.global	OS_IntDisable
 2881              		.syntax unified
 2882              		.thumb
 2883              		.thumb_func
 2884              		.fpu fpv4-sp-d16
 2885              		.type	OS_IntDisable, %function
 2886              	OS_IntDisable:
 2887              		@ args = 0, pretend = 0, frame = 0
 2888              		@ frame_needed = 0, uses_anonymous_args = 0
 2889              		@ link register save eliminated.
 2890 0000 43B2     		sxtb	r3, r0
 2891 0002 002B     		cmp	r3, #0
 2892 0004 0DDB     		blt	.L446
 2893 0006 0122     		movs	r2, #1
 2894 0008 5B09     		lsrs	r3, r3, #5
 2895 000a 00F01F00 		and	r0, r0, #31
 2896 000e 02FA00F0 		lsl	r0, r2, r0
 2897 0012 2033     		adds	r3, r3, #32
 2898 0014 044A     		ldr	r2, .L447
 2899 0016 42F82300 		str	r0, [r2, r3, lsl #2]
 2900              		.syntax unified
 2901              	@ 785 "CMSIS/include/cmsis_gcc.h" 1
 2902 001a BFF34F8F 		dsb 0xF
 2903              	@ 0 "" 2
 2904              	@ 774 "CMSIS/include/cmsis_gcc.h" 1
 2905 001e BFF36F8F 		isb 0xF
 2906              	@ 0 "" 2
 2907              		.thumb
ARM GAS  C:\Users\SZYMAN~1.RAJ\AppData\Local\Temp\ccUaWHFB.s 			page 52


 2908              		.syntax unified
 2909              	.L446:
 2910 0022 0020     		movs	r0, #0
 2911 0024 7047     		bx	lr
 2912              	.L448:
 2913 0026 00BF     		.align	2
 2914              	.L447:
 2915 0028 00E100E0 		.word	-536813312
 2916              		.size	OS_IntDisable, .-OS_IntDisable
 2917              		.section	.text.OS_IntSetMask,"ax",%progbits
 2918              		.align	1
 2919              		.global	OS_IntSetMask
 2920              		.syntax unified
 2921              		.thumb
 2922              		.thumb_func
 2923              		.fpu fpv4-sp-d16
 2924              		.type	OS_IntSetMask, %function
 2925              	OS_IntSetMask:
 2926              		@ args = 0, pretend = 0, frame = 0
 2927              		@ frame_needed = 0, uses_anonymous_args = 0
 2928              		@ link register save eliminated.
 2929 0000 6FF01B00 		mvn	r0, #27
 2930 0004 7047     		bx	lr
 2931              		.size	OS_IntSetMask, .-OS_IntSetMask
 2932              		.section	.text.OS_IntGetMask,"ax",%progbits
 2933              		.align	1
 2934              		.global	OS_IntGetMask
 2935              		.syntax unified
 2936              		.thumb
 2937              		.thumb_func
 2938              		.fpu fpv4-sp-d16
 2939              		.type	OS_IntGetMask, %function
 2940              	OS_IntGetMask:
 2941              		@ args = 0, pretend = 0, frame = 0
 2942              		@ frame_needed = 0, uses_anonymous_args = 0
 2943              		@ link register save eliminated.
 2944 0000 6FF01B00 		mvn	r0, #27
 2945 0004 7047     		bx	lr
 2946              		.size	OS_IntGetMask, .-OS_IntGetMask
 2947              		.section	.text.OS_IntAck,"ax",%progbits
 2948              		.align	1
 2949              		.global	OS_IntAck
 2950              		.syntax unified
 2951              		.thumb
 2952              		.thumb_func
 2953              		.fpu fpv4-sp-d16
 2954              		.type	OS_IntAck, %function
 2955              	OS_IntAck:
 2956              		@ args = 0, pretend = 0, frame = 0
 2957              		@ frame_needed = 0, uses_anonymous_args = 0
 2958              		@ link register save eliminated.
 2959 0000 43B2     		sxtb	r3, r0
 2960 0002 002B     		cmp	r3, #0
 2961 0004 09DB     		blt	.L452
 2962 0006 0122     		movs	r2, #1
 2963 0008 5B09     		lsrs	r3, r3, #5
 2964 000a 00F01F00 		and	r0, r0, #31
ARM GAS  C:\Users\SZYMAN~1.RAJ\AppData\Local\Temp\ccUaWHFB.s 			page 53


 2965 000e 02FA00F0 		lsl	r0, r2, r0
 2966 0012 6033     		adds	r3, r3, #96
 2967 0014 024A     		ldr	r2, .L453
 2968 0016 42F82300 		str	r0, [r2, r3, lsl #2]
 2969              	.L452:
 2970 001a 0020     		movs	r0, #0
 2971 001c 7047     		bx	lr
 2972              	.L454:
 2973 001e 00BF     		.align	2
 2974              	.L453:
 2975 0020 00E100E0 		.word	-536813312
 2976              		.size	OS_IntAck, .-OS_IntAck
 2977              		.section	.text.OS_ShMemInit,"ax",%progbits
 2978              		.align	1
 2979              		.global	OS_ShMemInit
 2980              		.syntax unified
 2981              		.thumb
 2982              		.thumb_func
 2983              		.fpu fpv4-sp-d16
 2984              		.type	OS_ShMemInit, %function
 2985              	OS_ShMemInit:
 2986              		@ args = 0, pretend = 0, frame = 0
 2987              		@ frame_needed = 0, uses_anonymous_args = 0
 2988              		@ link register save eliminated.
 2989 0000 6FF01B00 		mvn	r0, #27
 2990 0004 7047     		bx	lr
 2991              		.size	OS_ShMemInit, .-OS_ShMemInit
 2992              		.section	.text.OS_ShMemCreate,"ax",%progbits
 2993              		.align	1
 2994              		.global	OS_ShMemCreate
 2995              		.syntax unified
 2996              		.thumb
 2997              		.thumb_func
 2998              		.fpu fpv4-sp-d16
 2999              		.type	OS_ShMemCreate, %function
 3000              	OS_ShMemCreate:
 3001              		@ args = 0, pretend = 0, frame = 0
 3002              		@ frame_needed = 0, uses_anonymous_args = 0
 3003              		@ link register save eliminated.
 3004 0000 6FF01B00 		mvn	r0, #27
 3005 0004 7047     		bx	lr
 3006              		.size	OS_ShMemCreate, .-OS_ShMemCreate
 3007              		.section	.text.OS_ShMemSemTake,"ax",%progbits
 3008              		.align	1
 3009              		.global	OS_ShMemSemTake
 3010              		.syntax unified
 3011              		.thumb
 3012              		.thumb_func
 3013              		.fpu fpv4-sp-d16
 3014              		.type	OS_ShMemSemTake, %function
 3015              	OS_ShMemSemTake:
 3016              		@ args = 0, pretend = 0, frame = 0
 3017              		@ frame_needed = 0, uses_anonymous_args = 0
 3018              		@ link register save eliminated.
 3019 0000 6FF01B00 		mvn	r0, #27
 3020 0004 7047     		bx	lr
 3021              		.size	OS_ShMemSemTake, .-OS_ShMemSemTake
ARM GAS  C:\Users\SZYMAN~1.RAJ\AppData\Local\Temp\ccUaWHFB.s 			page 54


 3022              		.section	.text.OS_ShMemSemGive,"ax",%progbits
 3023              		.align	1
 3024              		.global	OS_ShMemSemGive
 3025              		.syntax unified
 3026              		.thumb
 3027              		.thumb_func
 3028              		.fpu fpv4-sp-d16
 3029              		.type	OS_ShMemSemGive, %function
 3030              	OS_ShMemSemGive:
 3031              		@ args = 0, pretend = 0, frame = 0
 3032              		@ frame_needed = 0, uses_anonymous_args = 0
 3033              		@ link register save eliminated.
 3034 0000 6FF01B00 		mvn	r0, #27
 3035 0004 7047     		bx	lr
 3036              		.size	OS_ShMemSemGive, .-OS_ShMemSemGive
 3037              		.section	.text.OS_ShMemAttach,"ax",%progbits
 3038              		.align	1
 3039              		.global	OS_ShMemAttach
 3040              		.syntax unified
 3041              		.thumb
 3042              		.thumb_func
 3043              		.fpu fpv4-sp-d16
 3044              		.type	OS_ShMemAttach, %function
 3045              	OS_ShMemAttach:
 3046              		@ args = 0, pretend = 0, frame = 0
 3047              		@ frame_needed = 0, uses_anonymous_args = 0
 3048              		@ link register save eliminated.
 3049 0000 6FF01B00 		mvn	r0, #27
 3050 0004 7047     		bx	lr
 3051              		.size	OS_ShMemAttach, .-OS_ShMemAttach
 3052              		.section	.text.OS_ShMemGetIdByName,"ax",%progbits
 3053              		.align	1
 3054              		.global	OS_ShMemGetIdByName
 3055              		.syntax unified
 3056              		.thumb
 3057              		.thumb_func
 3058              		.fpu fpv4-sp-d16
 3059              		.type	OS_ShMemGetIdByName, %function
 3060              	OS_ShMemGetIdByName:
 3061              		@ args = 0, pretend = 0, frame = 0
 3062              		@ frame_needed = 0, uses_anonymous_args = 0
 3063              		@ link register save eliminated.
 3064 0000 6FF01B00 		mvn	r0, #27
 3065 0004 7047     		bx	lr
 3066              		.size	OS_ShMemGetIdByName, .-OS_ShMemGetIdByName
 3067              		.section	.text.OS_HeapGetInfo,"ax",%progbits
 3068              		.align	1
 3069              		.global	OS_HeapGetInfo
 3070              		.syntax unified
 3071              		.thumb
 3072              		.thumb_func
 3073              		.fpu fpv4-sp-d16
 3074              		.type	OS_HeapGetInfo, %function
 3075              	OS_HeapGetInfo:
 3076              		@ args = 0, pretend = 0, frame = 0
 3077              		@ frame_needed = 0, uses_anonymous_args = 0
 3078              		@ link register save eliminated.
ARM GAS  C:\Users\SZYMAN~1.RAJ\AppData\Local\Temp\ccUaWHFB.s 			page 55


 3079 0000 6FF01B00 		mvn	r0, #27
 3080 0004 7047     		bx	lr
 3081              		.size	OS_HeapGetInfo, .-OS_HeapGetInfo
 3082              		.section	.text.OS_GetErrorName,"ax",%progbits
 3083              		.align	1
 3084              		.global	OS_GetErrorName
 3085              		.syntax unified
 3086              		.thumb
 3087              		.thumb_func
 3088              		.fpu fpv4-sp-d16
 3089              		.type	OS_GetErrorName, %function
 3090              	OS_GetErrorName:
 3091              		@ args = 0, pretend = 0, frame = 0
 3092              		@ frame_needed = 0, uses_anonymous_args = 0
 3093 0000 2030     		adds	r0, r0, #32
 3094 0002 10B5     		push	{r4, lr}
 3095 0004 0B46     		mov	r3, r1
 3096 0006 2028     		cmp	r0, #32
 3097 0008 51D8     		bhi	.L492
 3098 000a DFE800F0 		tbb	[pc, r0]
 3099              	.L465:
 3100 000e 4C       		.byte	(.L464-.L465)/2
 3101 000f 4A       		.byte	(.L466-.L465)/2
 3102 0010 48       		.byte	(.L467-.L465)/2
 3103 0011 46       		.byte	(.L468-.L465)/2
 3104 0012 44       		.byte	(.L469-.L465)/2
 3105 0013 42       		.byte	(.L470-.L465)/2
 3106 0014 50       		.byte	(.L492-.L465)/2
 3107 0015 50       		.byte	(.L492-.L465)/2
 3108 0016 50       		.byte	(.L492-.L465)/2
 3109 0017 50       		.byte	(.L492-.L465)/2
 3110 0018 50       		.byte	(.L492-.L465)/2
 3111 0019 50       		.byte	(.L492-.L465)/2
 3112 001a 40       		.byte	(.L471-.L465)/2
 3113 001b 3E       		.byte	(.L472-.L465)/2
 3114 001c 3C       		.byte	(.L473-.L465)/2
 3115 001d 3A       		.byte	(.L474-.L465)/2
 3116 001e 38       		.byte	(.L475-.L465)/2
 3117 001f 36       		.byte	(.L476-.L465)/2
 3118 0020 34       		.byte	(.L477-.L465)/2
 3119 0021 32       		.byte	(.L478-.L465)/2
 3120 0022 30       		.byte	(.L479-.L465)/2
 3121 0023 2E       		.byte	(.L480-.L465)/2
 3122 0024 2C       		.byte	(.L481-.L465)/2
 3123 0025 2A       		.byte	(.L482-.L465)/2
 3124 0026 28       		.byte	(.L483-.L465)/2
 3125 0027 26       		.byte	(.L484-.L465)/2
 3126 0028 24       		.byte	(.L485-.L465)/2
 3127 0029 22       		.byte	(.L486-.L465)/2
 3128 002a 20       		.byte	(.L487-.L465)/2
 3129 002b 1E       		.byte	(.L488-.L465)/2
 3130 002c 1C       		.byte	(.L489-.L465)/2
 3131 002d 11       		.byte	(.L490-.L465)/2
 3132 002e 4E       		.byte	(.L493-.L465)/2
 3133 002f 00       		.p2align 1
 3134              	.L490:
 3135 0030 2049     		ldr	r1, .L494
ARM GAS  C:\Users\SZYMAN~1.RAJ\AppData\Local\Temp\ccUaWHFB.s 			page 56


 3136              	.L491:
 3137              		.syntax unified
 3138              	@ 345 "CMSIS/include/cmsis_gcc.h" 1
 3139 0032 EFF31084 		MRS r4, primask
 3140              	@ 0 "" 2
 3141              	@ 128 "CMSIS/include/cmsis_gcc.h" 1
 3142 0036 72B6     		cpsid i
 3143              	@ 0 "" 2
 3144              		.thumb
 3145              		.syntax unified
 3146 0038 1846     		mov	r0, r3
 3147 003a FFF7FEFF 		bl	strcpy
 3148              		.syntax unified
 3149              	@ 373 "CMSIS/include/cmsis_gcc.h" 1
 3150 003e 84F31088 		MSR primask, r4
 3151              	@ 0 "" 2
 3152              		.thumb
 3153              		.syntax unified
 3154 0042 0020     		movs	r0, #0
 3155 0044 10BD     		pop	{r4, pc}
 3156              	.L489:
 3157 0046 1C49     		ldr	r1, .L494+4
 3158 0048 F3E7     		b	.L491
 3159              	.L488:
 3160 004a 1C49     		ldr	r1, .L494+8
 3161 004c F1E7     		b	.L491
 3162              	.L487:
 3163 004e 1C49     		ldr	r1, .L494+12
 3164 0050 EFE7     		b	.L491
 3165              	.L486:
 3166 0052 1C49     		ldr	r1, .L494+16
 3167 0054 EDE7     		b	.L491
 3168              	.L485:
 3169 0056 1C49     		ldr	r1, .L494+20
 3170 0058 EBE7     		b	.L491
 3171              	.L484:
 3172 005a 1C49     		ldr	r1, .L494+24
 3173 005c E9E7     		b	.L491
 3174              	.L483:
 3175 005e 1C49     		ldr	r1, .L494+28
 3176 0060 E7E7     		b	.L491
 3177              	.L482:
 3178 0062 1C49     		ldr	r1, .L494+32
 3179 0064 E5E7     		b	.L491
 3180              	.L481:
 3181 0066 1C49     		ldr	r1, .L494+36
 3182 0068 E3E7     		b	.L491
 3183              	.L480:
 3184 006a 1C49     		ldr	r1, .L494+40
 3185 006c E1E7     		b	.L491
 3186              	.L479:
 3187 006e 1C49     		ldr	r1, .L494+44
 3188 0070 DFE7     		b	.L491
 3189              	.L478:
 3190 0072 1C49     		ldr	r1, .L494+48
 3191 0074 DDE7     		b	.L491
 3192              	.L477:
ARM GAS  C:\Users\SZYMAN~1.RAJ\AppData\Local\Temp\ccUaWHFB.s 			page 57


 3193 0076 1C49     		ldr	r1, .L494+52
 3194 0078 DBE7     		b	.L491
 3195              	.L476:
 3196 007a 1C49     		ldr	r1, .L494+56
 3197 007c D9E7     		b	.L491
 3198              	.L475:
 3199 007e 1C49     		ldr	r1, .L494+60
 3200 0080 D7E7     		b	.L491
 3201              	.L474:
 3202 0082 1C49     		ldr	r1, .L494+64
 3203 0084 D5E7     		b	.L491
 3204              	.L473:
 3205 0086 1C49     		ldr	r1, .L494+68
 3206 0088 D3E7     		b	.L491
 3207              	.L472:
 3208 008a 1C49     		ldr	r1, .L494+72
 3209 008c D1E7     		b	.L491
 3210              	.L471:
 3211 008e 1C49     		ldr	r1, .L494+76
 3212 0090 CFE7     		b	.L491
 3213              	.L470:
 3214 0092 1C49     		ldr	r1, .L494+80
 3215 0094 CDE7     		b	.L491
 3216              	.L469:
 3217 0096 1C49     		ldr	r1, .L494+84
 3218 0098 CBE7     		b	.L491
 3219              	.L468:
 3220 009a 1C49     		ldr	r1, .L494+88
 3221 009c C9E7     		b	.L491
 3222              	.L467:
 3223 009e 1C49     		ldr	r1, .L494+92
 3224 00a0 C7E7     		b	.L491
 3225              	.L466:
 3226 00a2 1C49     		ldr	r1, .L494+96
 3227 00a4 C5E7     		b	.L491
 3228              	.L464:
 3229 00a6 1C49     		ldr	r1, .L494+100
 3230 00a8 C3E7     		b	.L491
 3231              	.L493:
 3232 00aa 1C49     		ldr	r1, .L494+104
 3233 00ac C1E7     		b	.L491
 3234              	.L492:
 3235 00ae 4FF0FF30 		mov	r0, #-1
 3236 00b2 10BD     		pop	{r4, pc}
 3237              	.L495:
 3238              		.align	2
 3239              	.L494:
 3240 00b4 0B000000 		.word	.LC1
 3241 00b8 14000000 		.word	.LC2
 3242 00bc 27000000 		.word	.LC3
 3243 00c0 43000000 		.word	.LC4
 3244 00c4 54000000 		.word	.LC5
 3245 00c8 67000000 		.word	.LC6
 3246 00cc 76000000 		.word	.LC7
 3247 00d0 85000000 		.word	.LC8
 3248 00d4 94000000 		.word	.LC9
 3249 00d8 A2000000 		.word	.LC10
ARM GAS  C:\Users\SZYMAN~1.RAJ\AppData\Local\Temp\ccUaWHFB.s 			page 58


 3250 00dc B3000000 		.word	.LC11
 3251 00e0 C9000000 		.word	.LC12
 3252 00e4 DB000000 		.word	.LC13
 3253 00e8 F0000000 		.word	.LC14
 3254 00ec 03010000 		.word	.LC15
 3255 00f0 15010000 		.word	.LC16
 3256 00f4 27010000 		.word	.LC17
 3257 00f8 3D010000 		.word	.LC18
 3258 00fc 51010000 		.word	.LC19
 3259 0100 69010000 		.word	.LC20
 3260 0104 7E010000 		.word	.LC21
 3261 0108 8A010000 		.word	.LC22
 3262 010c A1010000 		.word	.LC23
 3263 0110 BB010000 		.word	.LC24
 3264 0114 D1010000 		.word	.LC25
 3265 0118 EA010000 		.word	.LC26
 3266 011c 00000000 		.word	.LC0
 3267              		.size	OS_GetErrorName, .-OS_GetErrorName
 3268              		.section	.text.OS_TimerAPIInit,"ax",%progbits
 3269              		.align	1
 3270              		.global	OS_TimerAPIInit
 3271              		.syntax unified
 3272              		.thumb
 3273              		.thumb_func
 3274              		.fpu fpv4-sp-d16
 3275              		.type	OS_TimerAPIInit, %function
 3276              	OS_TimerAPIInit:
 3277              		@ args = 0, pretend = 0, frame = 0
 3278              		@ frame_needed = 0, uses_anonymous_args = 0
 3279              		@ link register save eliminated.
 3280 0000 0020     		movs	r0, #0
 3281 0002 7047     		bx	lr
 3282              		.size	OS_TimerAPIInit, .-OS_TimerAPIInit
 3283              		.section	.text.OS_TimerCreate,"ax",%progbits
 3284              		.align	1
 3285              		.global	OS_TimerCreate
 3286              		.syntax unified
 3287              		.thumb
 3288              		.thumb_func
 3289              		.fpu fpv4-sp-d16
 3290              		.type	OS_TimerCreate, %function
 3291              	OS_TimerCreate:
 3292              		@ args = 0, pretend = 0, frame = 0
 3293              		@ frame_needed = 0, uses_anonymous_args = 0
 3294 0000 2DE9F84F 		push	{r3, r4, r5, r6, r7, r8, r9, r10, fp, lr}
 3295 0004 8146     		mov	r9, r0
 3296 0006 0E46     		mov	r6, r1
 3297 0008 9246     		mov	r10, r2
 3298 000a 1F46     		mov	r7, r3
 3299              		.syntax unified
 3300              	@ 345 "CMSIS/include/cmsis_gcc.h" 1
 3301 000c EFF31088 		MRS r8, primask
 3302              	@ 0 "" 2
 3303              	@ 128 "CMSIS/include/cmsis_gcc.h" 1
 3304 0010 72B6     		cpsid i
 3305              	@ 0 "" 2
 3306              		.thumb
ARM GAS  C:\Users\SZYMAN~1.RAJ\AppData\Local\Temp\ccUaWHFB.s 			page 59


 3307              		.syntax unified
 3308 0012 0028     		cmp	r0, #0
 3309 0014 46D0     		beq	.L508
 3310 0016 0029     		cmp	r1, #0
 3311 0018 44D0     		beq	.L508
 3312 001a 002B     		cmp	r3, #0
 3313 001c 42D0     		beq	.L508
 3314 001e 0846     		mov	r0, r1
 3315 0020 FFF7FEFF 		bl	strlen
 3316 0024 1328     		cmp	r0, #19
 3317 0026 40D8     		bhi	.L509
 3318 0028 214C     		ldr	r4, .L521
 3319 002a 2546     		mov	r5, r4
 3320 002c 04F5A07B 		add	fp, r4, #320
 3321              	.L501:
 3322 0030 A36B     		ldr	r3, [r4, #56]
 3323 0032 2BB1     		cbz	r3, .L499
 3324 0034 3146     		mov	r1, r6
 3325 0036 04F12000 		add	r0, r4, #32
 3326 003a FFF7FEFF 		bl	strcmp
 3327 003e 58B1     		cbz	r0, .L500
 3328              	.L499:
 3329 0040 4034     		adds	r4, r4, #64
 3330 0042 5C45     		cmp	r4, fp
 3331 0044 F4D3     		bcc	.L501
 3332              	.L520:
 3333 0046 1A4C     		ldr	r4, .L521
 3334              	.L504:
 3335 0048 A36B     		ldr	r3, [r4, #56]
 3336 004a 53B1     		cbz	r3, .L503
 3337 004c 4034     		adds	r4, r4, #64
 3338 004e 5C45     		cmp	r4, fp
 3339 0050 FAD3     		bcc	.L504
 3340              	.L511:
 3341 0052 6FF00D00 		mvn	r0, #13
 3342 0056 21E0     		b	.L498
 3343              	.L500:
 3344 0058 5C45     		cmp	r4, fp
 3345 005a F4D2     		bcs	.L520
 3346 005c 6FF00E00 		mvn	r0, #14
 3347 0060 1CE0     		b	.L498
 3348              	.L503:
 3349 0062 5C45     		cmp	r4, fp
 3350 0064 F5D2     		bcs	.L511
 3351 0066 BAF1000F 		cmp	r10, #0
 3352 006a 02D0     		beq	.L505
 3353 006c 0123     		movs	r3, #1
 3354 006e CAF80030 		str	r3, [r10]
 3355              	.L505:
 3356 0072 651B     		subs	r5, r4, r5
 3357 0074 AD11     		asrs	r5, r5, #6
 3358 0076 AD09     		lsrs	r5, r5, #6
 3359 0078 0E49     		ldr	r1, .L521+4
 3360 007a C9F80050 		str	r5, [r9]
 3361 007e 2046     		mov	r0, r4
 3362 0080 FFF7FEFF 		bl	tmr_init
 3363 0084 3146     		mov	r1, r6
ARM GAS  C:\Users\SZYMAN~1.RAJ\AppData\Local\Temp\ccUaWHFB.s 			page 60


 3364 0086 04F12000 		add	r0, r4, #32
 3365 008a FFF7FEFF 		bl	strcpy
 3366 008e FFF7FEFF 		bl	OS_TaskGetId
 3367 0092 0123     		movs	r3, #1
 3368 0094 6063     		str	r0, [r4, #52]
 3369 0096 A363     		str	r3, [r4, #56]
 3370 0098 E763     		str	r7, [r4, #60]
 3371 009a 0020     		movs	r0, #0
 3372              	.L498:
 3373              		.syntax unified
 3374              	@ 373 "CMSIS/include/cmsis_gcc.h" 1
 3375 009c 88F31088 		MSR primask, r8
 3376              	@ 0 "" 2
 3377              		.thumb
 3378              		.syntax unified
 3379 00a0 BDE8F88F 		pop	{r3, r4, r5, r6, r7, r8, r9, r10, fp, pc}
 3380              	.L508:
 3381 00a4 6FF00100 		mvn	r0, #1
 3382 00a8 F8E7     		b	.L498
 3383              	.L509:
 3384 00aa 6FF00C00 		mvn	r0, #12
 3385 00ae F5E7     		b	.L498
 3386              	.L522:
 3387              		.align	2
 3388              	.L521:
 3389 00b0 00000000 		.word	.LANCHOR1
 3390 00b4 00000000 		.word	timer_handler
 3391              		.size	OS_TimerCreate, .-OS_TimerCreate
 3392              		.section	.text.OS_TimerSet,"ax",%progbits
 3393              		.align	1
 3394              		.global	OS_TimerSet
 3395              		.syntax unified
 3396              		.thumb
 3397              		.thumb_func
 3398              		.fpu fpv4-sp-d16
 3399              		.type	OS_TimerSet, %function
 3400              	OS_TimerSet:
 3401              		@ args = 0, pretend = 0, frame = 0
 3402              		@ frame_needed = 0, uses_anonymous_args = 0
 3403 0000 38B5     		push	{r3, r4, r5, lr}
 3404              		.syntax unified
 3405              	@ 345 "CMSIS/include/cmsis_gcc.h" 1
 3406 0002 EFF31085 		MRS r5, primask
 3407              	@ 0 "" 2
 3408              	@ 128 "CMSIS/include/cmsis_gcc.h" 1
 3409 0006 72B6     		cpsid i
 3410              	@ 0 "" 2
 3411              		.thumb
 3412              		.syntax unified
 3413 0008 0428     		cmp	r0, #4
 3414 000a 13D8     		bhi	.L525
 3415 000c 0C4B     		ldr	r3, .L527
 3416 000e 03EB8010 		add	r0, r3, r0, lsl #6
 3417 0012 836B     		ldr	r3, [r0, #56]
 3418 0014 8BB1     		cbz	r3, .L526
 3419 0016 0B4B     		ldr	r3, .L527+4
 3420 0018 4FF47A74 		mov	r4, #1000
ARM GAS  C:\Users\SZYMAN~1.RAJ\AppData\Local\Temp\ccUaWHFB.s 			page 61


 3421 001c 5A43     		muls	r2, r3, r2
 3422 001e 5943     		muls	r1, r3, r1
 3423 0020 B2FBF4F2 		udiv	r2, r2, r4
 3424 0024 B1FBF4F1 		udiv	r1, r1, r4
 3425 0028 FFF7FEFF 		bl	tmr_start
 3426 002c 0020     		movs	r0, #0
 3427              	.L524:
 3428              		.syntax unified
 3429              	@ 373 "CMSIS/include/cmsis_gcc.h" 1
 3430 002e 85F31088 		MSR primask, r5
 3431              	@ 0 "" 2
 3432              		.thumb
 3433              		.syntax unified
 3434 0032 38BD     		pop	{r3, r4, r5, pc}
 3435              	.L525:
 3436 0034 6FF00F00 		mvn	r0, #15
 3437 0038 F9E7     		b	.L524
 3438              	.L526:
 3439 003a 6FF00100 		mvn	r0, #1
 3440 003e F6E7     		b	.L524
 3441              	.L528:
 3442              		.align	2
 3443              	.L527:
 3444 0040 00000000 		.word	.LANCHOR1
 3445 0044 40420F00 		.word	1000000
 3446              		.size	OS_TimerSet, .-OS_TimerSet
 3447              		.section	.text.OS_TimerDelete,"ax",%progbits
 3448              		.align	1
 3449              		.global	OS_TimerDelete
 3450              		.syntax unified
 3451              		.thumb
 3452              		.thumb_func
 3453              		.fpu fpv4-sp-d16
 3454              		.type	OS_TimerDelete, %function
 3455              	OS_TimerDelete:
 3456              		@ args = 0, pretend = 0, frame = 0
 3457              		@ frame_needed = 0, uses_anonymous_args = 0
 3458 0000 38B5     		push	{r3, r4, r5, lr}
 3459              		.syntax unified
 3460              	@ 345 "CMSIS/include/cmsis_gcc.h" 1
 3461 0002 EFF31085 		MRS r5, primask
 3462              	@ 0 "" 2
 3463              	@ 128 "CMSIS/include/cmsis_gcc.h" 1
 3464 0006 72B6     		cpsid i
 3465              	@ 0 "" 2
 3466              		.thumb
 3467              		.syntax unified
 3468 0008 0428     		cmp	r0, #4
 3469 000a 0CD8     		bhi	.L531
 3470 000c 094C     		ldr	r4, .L533
 3471 000e 04EB8014 		add	r4, r4, r0, lsl #6
 3472 0012 A36B     		ldr	r3, [r4, #56]
 3473 0014 53B1     		cbz	r3, .L532
 3474 0016 2046     		mov	r0, r4
 3475 0018 FFF7FEFF 		bl	tmr_kill
 3476 001c 0020     		movs	r0, #0
 3477 001e A063     		str	r0, [r4, #56]
ARM GAS  C:\Users\SZYMAN~1.RAJ\AppData\Local\Temp\ccUaWHFB.s 			page 62


 3478              	.L530:
 3479              		.syntax unified
 3480              	@ 373 "CMSIS/include/cmsis_gcc.h" 1
 3481 0020 85F31088 		MSR primask, r5
 3482              	@ 0 "" 2
 3483              		.thumb
 3484              		.syntax unified
 3485 0024 38BD     		pop	{r3, r4, r5, pc}
 3486              	.L531:
 3487 0026 6FF00F00 		mvn	r0, #15
 3488 002a F9E7     		b	.L530
 3489              	.L532:
 3490 002c 6FF00100 		mvn	r0, #1
 3491 0030 F6E7     		b	.L530
 3492              	.L534:
 3493 0032 00BF     		.align	2
 3494              	.L533:
 3495 0034 00000000 		.word	.LANCHOR1
 3496              		.size	OS_TimerDelete, .-OS_TimerDelete
 3497              		.section	.text.OS_TimerGetIdByName,"ax",%progbits
 3498              		.align	1
 3499              		.global	OS_TimerGetIdByName
 3500              		.syntax unified
 3501              		.thumb
 3502              		.thumb_func
 3503              		.fpu fpv4-sp-d16
 3504              		.type	OS_TimerGetIdByName, %function
 3505              	OS_TimerGetIdByName:
 3506              		@ args = 0, pretend = 0, frame = 0
 3507              		@ frame_needed = 0, uses_anonymous_args = 0
 3508 0000 2DE9F843 		push	{r3, r4, r5, r6, r7, r8, r9, lr}
 3509 0004 0746     		mov	r7, r0
 3510 0006 0D46     		mov	r5, r1
 3511              		.syntax unified
 3512              	@ 345 "CMSIS/include/cmsis_gcc.h" 1
 3513 0008 EFF31086 		MRS r6, primask
 3514              	@ 0 "" 2
 3515              	@ 128 "CMSIS/include/cmsis_gcc.h" 1
 3516 000c 72B6     		cpsid i
 3517              	@ 0 "" 2
 3518              		.thumb
 3519              		.syntax unified
 3520 000e 10B3     		cbz	r0, .L541
 3521 0010 09B3     		cbz	r1, .L541
 3522 0012 0846     		mov	r0, r1
 3523 0014 FFF7FEFF 		bl	strlen
 3524 0018 1328     		cmp	r0, #19
 3525 001a 1FD8     		bhi	.L542
 3526 001c 114C     		ldr	r4, .L548
 3527 001e A146     		mov	r9, r4
 3528 0020 04F5A078 		add	r8, r4, #320
 3529              	.L539:
 3530 0024 A36B     		ldr	r3, [r4, #56]
 3531 0026 2BB1     		cbz	r3, .L537
 3532 0028 2946     		mov	r1, r5
 3533 002a 04F12000 		add	r0, r4, #32
 3534 002e FFF7FEFF 		bl	strcmp
ARM GAS  C:\Users\SZYMAN~1.RAJ\AppData\Local\Temp\ccUaWHFB.s 			page 63


 3535 0032 28B1     		cbz	r0, .L538
 3536              	.L537:
 3537 0034 4034     		adds	r4, r4, #64
 3538 0036 4445     		cmp	r4, r8
 3539 0038 F4D3     		bcc	.L539
 3540              	.L543:
 3541 003a 6FF01000 		mvn	r0, #16
 3542 003e 06E0     		b	.L536
 3543              	.L538:
 3544 0040 4445     		cmp	r4, r8
 3545 0042 FAD2     		bcs	.L543
 3546 0044 A4EB0904 		sub	r4, r4, r9
 3547 0048 A411     		asrs	r4, r4, #6
 3548 004a A409     		lsrs	r4, r4, #6
 3549 004c 3C60     		str	r4, [r7]
 3550              	.L536:
 3551              		.syntax unified
 3552              	@ 373 "CMSIS/include/cmsis_gcc.h" 1
 3553 004e 86F31088 		MSR primask, r6
 3554              	@ 0 "" 2
 3555              		.thumb
 3556              		.syntax unified
 3557 0052 BDE8F883 		pop	{r3, r4, r5, r6, r7, r8, r9, pc}
 3558              	.L541:
 3559 0056 6FF00100 		mvn	r0, #1
 3560 005a F8E7     		b	.L536
 3561              	.L542:
 3562 005c 6FF00C00 		mvn	r0, #12
 3563 0060 F5E7     		b	.L536
 3564              	.L549:
 3565 0062 00BF     		.align	2
 3566              	.L548:
 3567 0064 00000000 		.word	.LANCHOR1
 3568              		.size	OS_TimerGetIdByName, .-OS_TimerGetIdByName
 3569              		.section	.text.OS_TimerGetInfo,"ax",%progbits
 3570              		.align	1
 3571              		.global	OS_TimerGetInfo
 3572              		.syntax unified
 3573              		.thumb
 3574              		.thumb_func
 3575              		.fpu fpv4-sp-d16
 3576              		.type	OS_TimerGetInfo, %function
 3577              	OS_TimerGetInfo:
 3578              		@ args = 0, pretend = 0, frame = 0
 3579              		@ frame_needed = 0, uses_anonymous_args = 0
 3580 0000 38B5     		push	{r3, r4, r5, lr}
 3581 0002 0B46     		mov	r3, r1
 3582              		.syntax unified
 3583              	@ 345 "CMSIS/include/cmsis_gcc.h" 1
 3584 0004 EFF31085 		MRS r5, primask
 3585              	@ 0 "" 2
 3586              	@ 128 "CMSIS/include/cmsis_gcc.h" 1
 3587 0008 72B6     		cpsid i
 3588              	@ 0 "" 2
 3589              		.thumb
 3590              		.syntax unified
 3591 000a 0428     		cmp	r0, #4
ARM GAS  C:\Users\SZYMAN~1.RAJ\AppData\Local\Temp\ccUaWHFB.s 			page 64


 3592 000c 16D8     		bhi	.L552
 3593 000e C1B1     		cbz	r1, .L554
 3594 0010 0D49     		ldr	r1, .L555
 3595 0012 8001     		lsls	r0, r0, #6
 3596 0014 0C18     		adds	r4, r1, r0
 3597 0016 A26B     		ldr	r2, [r4, #56]
 3598 0018 9AB1     		cbz	r2, .L554
 3599 001a 2030     		adds	r0, r0, #32
 3600 001c 0144     		add	r1, r1, r0
 3601 001e 1846     		mov	r0, r3
 3602 0020 FFF7FEFF 		bl	strcpy
 3603 0024 626B     		ldr	r2, [r4, #52]
 3604 0026 4261     		str	r2, [r0, #20]
 3605 0028 6269     		ldr	r2, [r4, #20]
 3606 002a 8261     		str	r2, [r0, #24]
 3607 002c E269     		ldr	r2, [r4, #28]
 3608 002e C261     		str	r2, [r0, #28]
 3609 0030 0122     		movs	r2, #1
 3610 0032 0262     		str	r2, [r0, #32]
 3611 0034 0020     		movs	r0, #0
 3612              	.L551:
 3613              		.syntax unified
 3614              	@ 373 "CMSIS/include/cmsis_gcc.h" 1
 3615 0036 85F31088 		MSR primask, r5
 3616              	@ 0 "" 2
 3617              		.thumb
 3618              		.syntax unified
 3619 003a 38BD     		pop	{r3, r4, r5, pc}
 3620              	.L552:
 3621 003c 6FF00F00 		mvn	r0, #15
 3622 0040 F9E7     		b	.L551
 3623              	.L554:
 3624 0042 6FF00100 		mvn	r0, #1
 3625 0046 F6E7     		b	.L551
 3626              	.L556:
 3627              		.align	2
 3628              	.L555:
 3629 0048 00000000 		.word	.LANCHOR1
 3630              		.size	OS_TimerGetInfo, .-OS_TimerGetInfo
 3631              		.section	.bss.OS_bin_sem_table,"aw",%nobits
 3632              		.align	2
 3633              		.set	.LANCHOR5,. + 0
 3634              		.type	OS_bin_sem_table, %object
 3635              		.size	OS_bin_sem_table, 800
 3636              	OS_bin_sem_table:
 3637 0000 00000000 		.space	800
 3637      00000000 
 3637      00000000 
 3637      00000000 
 3637      00000000 
 3638              		.section	.bss.OS_count_sem_table,"aw",%nobits
 3639              		.align	2
 3640              		.set	.LANCHOR6,. + 0
 3641              		.type	OS_count_sem_table, %object
 3642              		.size	OS_count_sem_table, 800
 3643              	OS_count_sem_table:
 3644 0000 00000000 		.space	800
ARM GAS  C:\Users\SZYMAN~1.RAJ\AppData\Local\Temp\ccUaWHFB.s 			page 65


 3644      00000000 
 3644      00000000 
 3644      00000000 
 3644      00000000 
 3645              		.section	.bss.OS_mut_sem_table,"aw",%nobits
 3646              		.align	2
 3647              		.set	.LANCHOR7,. + 0
 3648              		.type	OS_mut_sem_table, %object
 3649              		.size	OS_mut_sem_table, 880
 3650              	OS_mut_sem_table:
 3651 0000 00000000 		.space	880
 3651      00000000 
 3651      00000000 
 3651      00000000 
 3651      00000000 
 3652              		.section	.bss.OS_queue_table,"aw",%nobits
 3653              		.align	2
 3654              		.set	.LANCHOR4,. + 0
 3655              		.type	OS_queue_table, %object
 3656              		.size	OS_queue_table, 3584
 3657              	OS_queue_table:
 3658 0000 00000000 		.space	3584
 3658      00000000 
 3658      00000000 
 3658      00000000 
 3658      00000000 
 3659              		.section	.bss.OS_task_table,"aw",%nobits
 3660              		.align	2
 3661              		.set	.LANCHOR8,. + 0
 3662              		.type	OS_task_table, %object
 3663              		.size	OS_task_table, 7168
 3664              	OS_task_table:
 3665 0000 00000000 		.space	7168
 3665      00000000 
 3665      00000000 
 3665      00000000 
 3665      00000000 
 3666              		.section	.bss.OS_timer_table,"aw",%nobits
 3667              		.align	2
 3668              		.set	.LANCHOR1,. + 0
 3669              		.type	OS_timer_table, %object
 3670              		.size	OS_timer_table, 320
 3671              	OS_timer_table:
 3672 0000 00000000 		.space	320
 3672      00000000 
 3672      00000000 
 3672      00000000 
 3672      00000000 
 3673              		.section	.bss.local_timer,"aw",%nobits
 3674              		.align	2
 3675              		.set	.LANCHOR2,. + 0
 3676              		.type	local_timer, %object
 3677              		.size	local_timer, 32
 3678              	local_timer:
 3679 0000 00000000 		.space	32
 3679      00000000 
 3679      00000000 
ARM GAS  C:\Users\SZYMAN~1.RAJ\AppData\Local\Temp\ccUaWHFB.s 			page 66


 3679      00000000 
 3679      00000000 
 3680              		.section	.bss.localtime,"aw",%nobits
 3681              		.align	2
 3682              		.set	.LANCHOR0,. + 0
 3683              		.type	localtime, %object
 3684              		.size	localtime, 8
 3685              	localtime:
 3686 0000 00000000 		.space	8
 3686      00000000 
 3687              		.section	.bss.printf_enabled,"aw",%nobits
 3688              		.align	2
 3689              		.set	.LANCHOR3,. + 0
 3690              		.type	printf_enabled, %object
 3691              		.size	printf_enabled, 4
 3692              	printf_enabled:
 3693 0000 00000000 		.space	4
 3694              		.section	.rodata.OS_GetErrorName.str1.1,"aMS",%progbits,1
 3695              	.LC0:
 3696 0000 4F535F53 		.ascii	"OS_SUCCESS\000"
 3696      55434345 
 3696      535300
 3697              	.LC1:
 3698 000b 4F535F45 		.ascii	"OS_ERROR\000"
 3698      52524F52 
 3698      00
 3699              	.LC2:
 3700 0014 4F535F49 		.ascii	"OS_INVALID_POINTER\000"
 3700      4E56414C 
 3700      49445F50 
 3700      4F494E54 
 3700      455200
 3701              	.LC3:
 3702 0027 4F535F45 		.ascii	"OS_ERROR_ADDRESS_MISALIGNED\000"
 3702      52524F52 
 3702      5F414444 
 3702      52455353 
 3702      5F4D4953 
 3703              	.LC4:
 3704 0043 4F535F45 		.ascii	"OS_ERROR_TIMEOUT\000"
 3704      52524F52 
 3704      5F54494D 
 3704      454F5554 
 3704      00
 3705              	.LC5:
 3706 0054 4F535F49 		.ascii	"OS_INVALID_INT_NUM\000"
 3706      4E56414C 
 3706      49445F49 
 3706      4E545F4E 
 3706      554D00
 3707              	.LC6:
 3708 0067 4F535F53 		.ascii	"OS_SEM_FAILURE\000"
 3708      454D5F46 
 3708      41494C55 
 3708      524500
 3709              	.LC7:
 3710 0076 4F535F53 		.ascii	"OS_SEM_TIMEOUT\000"
ARM GAS  C:\Users\SZYMAN~1.RAJ\AppData\Local\Temp\ccUaWHFB.s 			page 67


 3710      454D5F54 
 3710      494D454F 
 3710      555400
 3711              	.LC8:
 3712 0085 4F535F51 		.ascii	"OS_QUEUE_EMPTY\000"
 3712      55455545 
 3712      5F454D50 
 3712      545900
 3713              	.LC9:
 3714 0094 4F535F51 		.ascii	"OS_QUEUE_FULL\000"
 3714      55455545 
 3714      5F46554C 
 3714      4C00
 3715              	.LC10:
 3716 00a2 4F535F51 		.ascii	"OS_QUEUE_TIMEOUT\000"
 3716      55455545 
 3716      5F54494D 
 3716      454F5554 
 3716      00
 3717              	.LC11:
 3718 00b3 4F535F51 		.ascii	"OS_QUEUE_INVALID_SIZE\000"
 3718      55455545 
 3718      5F494E56 
 3718      414C4944 
 3718      5F53495A 
 3719              	.LC12:
 3720 00c9 4F535F51 		.ascii	"OS_QUEUE_ID_ERROR\000"
 3720      55455545 
 3720      5F49445F 
 3720      4552524F 
 3720      5200
 3721              	.LC13:
 3722 00db 4F535F45 		.ascii	"OS_ERR_NAME_TOO_LONG\000"
 3722      52525F4E 
 3722      414D455F 
 3722      544F4F5F 
 3722      4C4F4E47 
 3723              	.LC14:
 3724 00f0 4F535F45 		.ascii	"OS_ERR_NO_FREE_IDS\000"
 3724      52525F4E 
 3724      4F5F4652 
 3724      45455F49 
 3724      445300
 3725              	.LC15:
 3726 0103 4F535F45 		.ascii	"OS_ERR_NAME_TAKEN\000"
 3726      52525F4E 
 3726      414D455F 
 3726      54414B45 
 3726      4E00
 3727              	.LC16:
 3728 0115 4F535F45 		.ascii	"OS_ERR_INVALID_ID\000"
 3728      52525F49 
 3728      4E56414C 
 3728      49445F49 
 3728      4400
 3729              	.LC17:
 3730 0127 4F535F45 		.ascii	"OS_ERR_NAME_NOT_FOUND\000"
ARM GAS  C:\Users\SZYMAN~1.RAJ\AppData\Local\Temp\ccUaWHFB.s 			page 68


 3730      52525F4E 
 3730      414D455F 
 3730      4E4F545F 
 3730      464F554E 
 3731              	.LC18:
 3732 013d 4F535F45 		.ascii	"OS_ERR_SEM_NOT_FULL\000"
 3732      52525F53 
 3732      454D5F4E 
 3732      4F545F46 
 3732      554C4C00 
 3733              	.LC19:
 3734 0151 4F535F45 		.ascii	"OS_ERR_INVALID_PRIORITY\000"
 3734      52525F49 
 3734      4E56414C 
 3734      49445F50 
 3734      52494F52 
 3735              	.LC20:
 3736 0169 4F535F49 		.ascii	"OS_INVALID_SEM_VALUE\000"
 3736      4E56414C 
 3736      49445F53 
 3736      454D5F56 
 3736      414C5545 
 3737              	.LC21:
 3738 017e 4F535F45 		.ascii	"OS_ERR_FILE\000"
 3738      52525F46 
 3738      494C4500 
 3739              	.LC22:
 3740 018a 4F535F45 		.ascii	"OS_ERR_NOT_IMPLEMENTED\000"
 3740      52525F4E 
 3740      4F545F49 
 3740      4D504C45 
 3740      4D454E54 
 3741              	.LC23:
 3742 01a1 4F535F54 		.ascii	"OS_TIMER_ERR_INVALID_ARGS\000"
 3742      494D4552 
 3742      5F455252 
 3742      5F494E56 
 3742      414C4944 
 3743              	.LC24:
 3744 01bb 4F535F54 		.ascii	"OS_TIMER_ERR_TIMER_ID\000"
 3744      494D4552 
 3744      5F455252 
 3744      5F54494D 
 3744      45525F49 
 3745              	.LC25:
 3746 01d1 4F535F54 		.ascii	"OS_TIMER_ERR_UNAVAILABLE\000"
 3746      494D4552 
 3746      5F455252 
 3746      5F554E41 
 3746      5641494C 
 3747              	.LC26:
 3748 01ea 4F535F54 		.ascii	"OS_TIMER_ERR_INTERNAL\000"
 3748      494D4552 
 3748      5F455252 
 3748      5F494E54 
 3748      45524E41 
 3749              		.ident	"GCC: (GNU Tools for ARM Embedded Processors) 6.2.1 20161205 (release) [ARM/embedded-6-bran
ARM GAS  C:\Users\SZYMAN~1.RAJ\AppData\Local\Temp\ccUaWHFB.s 			page 69


ARM GAS  C:\Users\SZYMAN~1.RAJ\AppData\Local\Temp\ccUaWHFB.s 			page 70

