ARM GAS  C:\Users\SZYMAN~1.RAJ\AppData\Local\Temp\ccISOjsl.s 			page 1


   1              		.cpu cortex-m4
   2              		.eabi_attribute 27, 1
   3              		.eabi_attribute 28, 1
   4              		.eabi_attribute 23, 1
   5              		.eabi_attribute 24, 1
   6              		.eabi_attribute 25, 1
   7              		.eabi_attribute 26, 1
   8              		.eabi_attribute 30, 4
   9              		.eabi_attribute 34, 1
  10              		.eabi_attribute 18, 4
  11              		.file	"oskernel.c"
  12              		.section	.text.priv_tsk_idle,"ax",%progbits
  13              		.align	1
  14              		.syntax unified
  15              		.thumb
  16              		.thumb_func
  17              		.fpu fpv4-sp-d16
  18              		.type	priv_tsk_idle, %function
  19              	priv_tsk_idle:
  20              		@ args = 0, pretend = 0, frame = 0
  21              		@ frame_needed = 0, uses_anonymous_args = 0
  22              		@ link register save eliminated.
  23              		.syntax unified
  24              	@ 40 "StateOS/kernel/oskernel.c" 1
  25 0000 30BF     		wfi
  26              	@ 0 "" 2
  27              		.thumb
  28              		.syntax unified
  29 0002 7047     		bx	lr
  30              		.size	priv_tsk_idle, .-priv_tsk_idle
  31              		.section	.text.priv_tsk_insert,"ax",%progbits
  32              		.align	1
  33              		.syntax unified
  34              		.thumb
  35              		.thumb_func
  36              		.fpu fpv4-sp-d16
  37              		.type	priv_tsk_insert, %function
  38              	priv_tsk_insert:
  39              		@ args = 0, pretend = 0, frame = 0
  40              		@ frame_needed = 0, uses_anonymous_args = 0
  41              		@ link register save eliminated.
  42 0000 C26A     		ldr	r2, [r0, #44]
  43 0002 064B     		ldr	r3, .L7
  44 0004 1AB1     		cbz	r2, .L3
  45              	.L4:
  46 0006 DB68     		ldr	r3, [r3, #12]
  47 0008 D96A     		ldr	r1, [r3, #44]
  48 000a 8A42     		cmp	r2, r1
  49 000c FBD9     		bls	.L4
  50              	.L3:
  51 000e 9A68     		ldr	r2, [r3, #8]
  52 0010 8260     		str	r2, [r0, #8]
  53 0012 C360     		str	r3, [r0, #12]
  54 0014 9860     		str	r0, [r3, #8]
  55 0016 D060     		str	r0, [r2, #12]
  56 0018 7047     		bx	lr
  57              	.L8:
ARM GAS  C:\Users\SZYMAN~1.RAJ\AppData\Local\Temp\ccISOjsl.s 			page 2


  58 001a 00BF     		.align	2
  59              	.L7:
  60 001c 00000000 		.word	.LANCHOR0
  61              		.size	priv_tsk_insert, .-priv_tsk_insert
  62              		.section	.text.priv_tmr_insert,"ax",%progbits
  63              		.align	1
  64              		.syntax unified
  65              		.thumb
  66              		.thumb_func
  67              		.fpu fpv4-sp-d16
  68              		.type	priv_tmr_insert, %function
  69              	priv_tmr_insert:
  70              		@ args = 0, pretend = 0, frame = 0
  71              		@ frame_needed = 0, uses_anonymous_args = 0
  72 0000 30B5     		push	{r4, r5, lr}
  73 0002 8469     		ldr	r4, [r0, #24]
  74 0004 4160     		str	r1, [r0, #4]
  75 0006 611C     		adds	r1, r4, #1
  76 0008 084B     		ldr	r3, .L17
  77 000a 09D0     		beq	.L10
  78              	.L11:
  79 000c DB68     		ldr	r3, [r3, #12]
  80 000e 9969     		ldr	r1, [r3, #24]
  81 0010 4A1C     		adds	r2, r1, #1
  82 0012 05D0     		beq	.L10
  83 0014 4269     		ldr	r2, [r0, #20]
  84 0016 5D69     		ldr	r5, [r3, #20]
  85 0018 2244     		add	r2, r2, r4
  86 001a 521B     		subs	r2, r2, r5
  87 001c 9142     		cmp	r1, r2
  88 001e F5D9     		bls	.L11
  89              	.L10:
  90 0020 9A68     		ldr	r2, [r3, #8]
  91 0022 8260     		str	r2, [r0, #8]
  92 0024 C360     		str	r3, [r0, #12]
  93 0026 9860     		str	r0, [r3, #8]
  94 0028 D060     		str	r0, [r2, #12]
  95 002a 30BD     		pop	{r4, r5, pc}
  96              	.L18:
  97              		.align	2
  98              	.L17:
  99 002c 00000000 		.word	.LANCHOR1
 100              		.size	priv_tmr_insert, .-priv_tmr_insert
 101              		.section	.text.core_tsk_insert,"ax",%progbits
 102              		.align	1
 103              		.global	core_tsk_insert
 104              		.syntax unified
 105              		.thumb
 106              		.thumb_func
 107              		.fpu fpv4-sp-d16
 108              		.type	core_tsk_insert, %function
 109              	core_tsk_insert:
 110              		@ args = 0, pretend = 0, frame = 0
 111              		@ frame_needed = 0, uses_anonymous_args = 0
 112 0000 0123     		movs	r3, #1
 113 0002 4360     		str	r3, [r0, #4]
 114 0004 10B5     		push	{r4, lr}
ARM GAS  C:\Users\SZYMAN~1.RAJ\AppData\Local\Temp\ccISOjsl.s 			page 3


 115 0006 FFF7FEFF 		bl	priv_tsk_insert
 116 000a 044B     		ldr	r3, .L21
 117 000c DB68     		ldr	r3, [r3, #12]
 118 000e 9842     		cmp	r0, r3
 119 0010 02BF     		ittt	eq
 120 0012 034B     		ldreq	r3, .L21+4
 121 0014 4FF08052 		moveq	r2, #268435456
 122 0018 5A60     		streq	r2, [r3, #4]
 123 001a 10BD     		pop	{r4, pc}
 124              	.L22:
 125              		.align	2
 126              	.L21:
 127 001c 00000000 		.word	.LANCHOR0
 128 0020 00ED00E0 		.word	-536810240
 129              		.size	core_tsk_insert, .-core_tsk_insert
 130              		.section	.text.core_tsk_remove,"ax",%progbits
 131              		.align	1
 132              		.global	core_tsk_remove
 133              		.syntax unified
 134              		.thumb
 135              		.thumb_func
 136              		.fpu fpv4-sp-d16
 137              		.type	core_tsk_remove, %function
 138              	core_tsk_remove:
 139              		@ args = 0, pretend = 0, frame = 0
 140              		@ frame_needed = 0, uses_anonymous_args = 0
 141              		@ link register save eliminated.
 142 0000 0023     		movs	r3, #0
 143 0002 4360     		str	r3, [r0, #4]
 144 0004 C268     		ldr	r2, [r0, #12]
 145 0006 8368     		ldr	r3, [r0, #8]
 146 0008 9360     		str	r3, [r2, #8]
 147 000a DA60     		str	r2, [r3, #12]
 148 000c 044B     		ldr	r3, .L25
 149 000e 1B68     		ldr	r3, [r3]
 150 0010 9842     		cmp	r0, r3
 151 0012 04D1     		bne	.L23
 152 0014 034B     		ldr	r3, .L25+4
 153 0016 4FF08052 		mov	r2, #268435456
 154 001a 5A60     		str	r2, [r3, #4]
 155              		.syntax unified
 156              	@ 117 "CMSIS/include/cmsis_gcc.h" 1
 157 001c 62B6     		cpsie i
 158              	@ 0 "" 2
 159              		.thumb
 160              		.syntax unified
 161              	.L23:
 162 001e 7047     		bx	lr
 163              	.L26:
 164              		.align	2
 165              	.L25:
 166 0020 00000000 		.word	.LANCHOR2
 167 0024 00ED00E0 		.word	-536810240
 168              		.size	core_tsk_remove, .-core_tsk_remove
 169              		.section	.text.core_ctx_init,"ax",%progbits
 170              		.align	1
 171              		.global	core_ctx_init
ARM GAS  C:\Users\SZYMAN~1.RAJ\AppData\Local\Temp\ccISOjsl.s 			page 4


 172              		.syntax unified
 173              		.thumb
 174              		.thumb_func
 175              		.fpu fpv4-sp-d16
 176              		.type	core_ctx_init, %function
 177              	core_ctx_init:
 178              		@ args = 0, pretend = 0, frame = 0
 179              		@ frame_needed = 0, uses_anonymous_args = 0
 180              		@ link register save eliminated.
 181 0000 436A     		ldr	r3, [r0, #36]
 182 0002 6FF00202 		mvn	r2, #2
 183 0006 43F8242C 		str	r2, [r3, #-36]
 184 000a 054A     		ldr	r2, .L28
 185 000c 43F8082C 		str	r2, [r3, #-8]
 186 0010 4FF08072 		mov	r2, #16777216
 187 0014 43F8042C 		str	r2, [r3, #-4]
 188 0018 443B     		subs	r3, r3, #68
 189 001a 0362     		str	r3, [r0, #32]
 190 001c 7047     		bx	lr
 191              	.L29:
 192 001e 00BF     		.align	2
 193              	.L28:
 194 0020 00000000 		.word	core_tsk_loop
 195              		.size	core_ctx_init, .-core_ctx_init
 196              		.section	.text.core_ctx_switch,"ax",%progbits
 197              		.align	1
 198              		.global	core_ctx_switch
 199              		.syntax unified
 200              		.thumb
 201              		.thumb_func
 202              		.fpu fpv4-sp-d16
 203              		.type	core_ctx_switch, %function
 204              	core_ctx_switch:
 205              		@ args = 0, pretend = 0, frame = 0
 206              		@ frame_needed = 0, uses_anonymous_args = 0
 207              		@ link register save eliminated.
 208 0000 054B     		ldr	r3, .L32
 209 0002 DB68     		ldr	r3, [r3, #12]
 210 0004 DA68     		ldr	r2, [r3, #12]
 211 0006 DB6A     		ldr	r3, [r3, #44]
 212 0008 D26A     		ldr	r2, [r2, #44]
 213 000a 9A42     		cmp	r2, r3
 214 000c 02BF     		ittt	eq
 215 000e 034B     		ldreq	r3, .L32+4
 216 0010 4FF08052 		moveq	r2, #268435456
 217 0014 5A60     		streq	r2, [r3, #4]
 218 0016 7047     		bx	lr
 219              	.L33:
 220              		.align	2
 221              	.L32:
 222 0018 00000000 		.word	.LANCHOR0
 223 001c 00ED00E0 		.word	-536810240
 224              		.size	core_ctx_switch, .-core_ctx_switch
 225              		.section	.text.core_tsk_loop,"ax",%progbits
 226              		.align	1
 227              		.global	core_tsk_loop
 228              		.syntax unified
ARM GAS  C:\Users\SZYMAN~1.RAJ\AppData\Local\Temp\ccISOjsl.s 			page 5


 229              		.thumb
 230              		.thumb_func
 231              		.fpu fpv4-sp-d16
 232              		.type	core_tsk_loop, %function
 233              	core_tsk_loop:
 234              		@ Volatile: function does not return.
 235              		@ args = 0, pretend = 0, frame = 0
 236              		@ frame_needed = 0, uses_anonymous_args = 0
 237 0000 08B5     		push	{r3, lr}
 238 0002 044C     		ldr	r4, .L36
 239              	.L35:
 240              		.syntax unified
 241              	@ 117 "CMSIS/include/cmsis_gcc.h" 1
 242 0004 62B6     		cpsie i
 243              	@ 0 "" 2
 244              		.thumb
 245              		.syntax unified
 246 0006 2368     		ldr	r3, [r4]
 247 0008 1B69     		ldr	r3, [r3, #16]
 248 000a 9847     		blx	r3
 249              		.syntax unified
 250              	@ 128 "CMSIS/include/cmsis_gcc.h" 1
 251 000c 72B6     		cpsid i
 252              	@ 0 "" 2
 253              		.thumb
 254              		.syntax unified
 255 000e FFF7FEFF 		bl	core_ctx_switch
 256 0012 F7E7     		b	.L35
 257              	.L37:
 258              		.align	2
 259              	.L36:
 260 0014 00000000 		.word	.LANCHOR2
 261              		.size	core_tsk_loop, .-core_tsk_loop
 262              		.section	.text.core_tsk_append,"ax",%progbits
 263              		.align	1
 264              		.global	core_tsk_append
 265              		.syntax unified
 266              		.thumb
 267              		.thumb_func
 268              		.fpu fpv4-sp-d16
 269              		.type	core_tsk_append, %function
 270              	core_tsk_append:
 271              		@ args = 0, pretend = 0, frame = 0
 272              		@ frame_needed = 0, uses_anonymous_args = 0
 273 0000 10B5     		push	{r4, lr}
 274 0002 0163     		str	r1, [r0, #48]
 275              	.L40:
 276 0004 0B68     		ldr	r3, [r1]
 277 0006 23B1     		cbz	r3, .L39
 278 0008 DA6A     		ldr	r2, [r3, #44]
 279 000a C46A     		ldr	r4, [r0, #44]
 280 000c 9442     		cmp	r4, r2
 281 000e 04D9     		bls	.L42
 282 0010 D861     		str	r0, [r3, #28]
 283              	.L39:
 284 0012 C161     		str	r1, [r0, #28]
 285 0014 0360     		str	r3, [r0]
ARM GAS  C:\Users\SZYMAN~1.RAJ\AppData\Local\Temp\ccISOjsl.s 			page 6


 286 0016 0860     		str	r0, [r1]
 287 0018 10BD     		pop	{r4, pc}
 288              	.L42:
 289 001a 1946     		mov	r1, r3
 290 001c F2E7     		b	.L40
 291              		.size	core_tsk_append, .-core_tsk_append
 292              		.section	.text.core_tsk_unlink,"ax",%progbits
 293              		.align	1
 294              		.global	core_tsk_unlink
 295              		.syntax unified
 296              		.thumb
 297              		.thumb_func
 298              		.fpu fpv4-sp-d16
 299              		.type	core_tsk_unlink, %function
 300              	core_tsk_unlink:
 301              		@ args = 0, pretend = 0, frame = 0
 302              		@ frame_needed = 0, uses_anonymous_args = 0
 303              		@ link register save eliminated.
 304 0000 0368     		ldr	r3, [r0]
 305 0002 C269     		ldr	r2, [r0, #28]
 306 0004 0164     		str	r1, [r0, #64]
 307 0006 03B1     		cbz	r3, .L49
 308 0008 DA61     		str	r2, [r3, #28]
 309              	.L49:
 310 000a 1360     		str	r3, [r2]
 311 000c 0023     		movs	r3, #0
 312 000e 0360     		str	r3, [r0]
 313 0010 7047     		bx	lr
 314              		.size	core_tsk_unlink, .-core_tsk_unlink
 315              		.section	.text.core_tsk_prio,"ax",%progbits
 316              		.align	1
 317              		.global	core_tsk_prio
 318              		.syntax unified
 319              		.thumb
 320              		.thumb_func
 321              		.fpu fpv4-sp-d16
 322              		.type	core_tsk_prio, %function
 323              	core_tsk_prio:
 324              		@ args = 0, pretend = 0, frame = 0
 325              		@ frame_needed = 0, uses_anonymous_args = 0
 326 0000 436B     		ldr	r3, [r0, #52]
 327 0002 10B5     		push	{r4, lr}
 328 0004 0446     		mov	r4, r0
 329              	.L54:
 330 0006 83B9     		cbnz	r3, .L56
 331 0008 E26A     		ldr	r2, [r4, #44]
 332 000a 9142     		cmp	r1, r2
 333 000c 2DD0     		beq	.L53
 334 000e 174A     		ldr	r2, .L65
 335 0010 E162     		str	r1, [r4, #44]
 336 0012 1268     		ldr	r2, [r2]
 337 0014 9442     		cmp	r4, r2
 338 0016 10D1     		bne	.L59
 339 0018 E368     		ldr	r3, [r4, #12]
 340 001a DB6A     		ldr	r3, [r3, #44]
 341 001c 9942     		cmp	r1, r3
 342 001e 24D2     		bcs	.L53
ARM GAS  C:\Users\SZYMAN~1.RAJ\AppData\Local\Temp\ccISOjsl.s 			page 7


 343 0020 134B     		ldr	r3, .L65+4
 344 0022 4FF08052 		mov	r2, #268435456
 345 0026 5A60     		str	r2, [r3, #4]
 346 0028 10BD     		pop	{r4, pc}
 347              	.L56:
 348 002a 1A68     		ldr	r2, [r3]
 349 002c 1AB1     		cbz	r2, .L55
 350 002e D26A     		ldr	r2, [r2, #44]
 351 0030 9142     		cmp	r1, r2
 352 0032 38BF     		it	cc
 353 0034 1146     		movcc	r1, r2
 354              	.L55:
 355 0036 DB68     		ldr	r3, [r3, #12]
 356 0038 E5E7     		b	.L54
 357              	.L59:
 358 003a 6268     		ldr	r2, [r4, #4]
 359 003c 012A     		cmp	r2, #1
 360 003e 08D1     		bne	.L61
 361 0040 E268     		ldr	r2, [r4, #12]
 362 0042 A368     		ldr	r3, [r4, #8]
 363 0044 9360     		str	r3, [r2, #8]
 364 0046 2046     		mov	r0, r4
 365 0048 DA60     		str	r2, [r3, #12]
 366 004a BDE81040 		pop	{r4, lr}
 367 004e FFF7FEBF 		b	core_tsk_insert
 368              	.L61:
 369 0052 022A     		cmp	r2, #2
 370 0054 09D1     		bne	.L53
 371 0056 2046     		mov	r0, r4
 372 0058 1946     		mov	r1, r3
 373 005a FFF7FEFF 		bl	core_tsk_unlink
 374 005e 216B     		ldr	r1, [r4, #48]
 375 0060 2046     		mov	r0, r4
 376 0062 BDE81040 		pop	{r4, lr}
 377 0066 FFF7FEBF 		b	core_tsk_append
 378              	.L53:
 379 006a 10BD     		pop	{r4, pc}
 380              	.L66:
 381              		.align	2
 382              	.L65:
 383 006c 00000000 		.word	.LANCHOR2
 384 0070 00ED00E0 		.word	-536810240
 385              		.size	core_tsk_prio, .-core_tsk_prio
 386              		.section	.text.core_tsk_handler,"ax",%progbits
 387              		.align	1
 388              		.global	core_tsk_handler
 389              		.syntax unified
 390              		.thumb
 391              		.thumb_func
 392              		.fpu fpv4-sp-d16
 393              		.type	core_tsk_handler, %function
 394              	core_tsk_handler:
 395              		@ args = 0, pretend = 0, frame = 0
 396              		@ frame_needed = 0, uses_anonymous_args = 0
 397 0000 38B5     		push	{r3, r4, r5, lr}
 398              		.syntax unified
 399              	@ 128 "CMSIS/include/cmsis_gcc.h" 1
ARM GAS  C:\Users\SZYMAN~1.RAJ\AppData\Local\Temp\ccISOjsl.s 			page 8


 400 0002 72B6     		cpsid i
 401              	@ 0 "" 2
 402              		.thumb
 403              		.syntax unified
 404 0004 0A4B     		ldr	r3, .L69
 405 0006 0B4C     		ldr	r4, .L69+4
 406 0008 0B4D     		ldr	r5, .L69+8
 407 000a 0022     		movs	r2, #0
 408 000c 9A60     		str	r2, [r3, #8]
 409 000e 2268     		ldr	r2, [r4]
 410 0010 1062     		str	r0, [r2, #32]
 411 0012 E868     		ldr	r0, [r5, #12]
 412 0014 8242     		cmp	r2, r0
 413 0016 06D1     		bne	.L68
 414 0018 C268     		ldr	r2, [r0, #12]
 415 001a 8368     		ldr	r3, [r0, #8]
 416 001c 9360     		str	r3, [r2, #8]
 417 001e DA60     		str	r2, [r3, #12]
 418 0020 FFF7FEFF 		bl	priv_tsk_insert
 419 0024 E868     		ldr	r0, [r5, #12]
 420              	.L68:
 421 0026 2060     		str	r0, [r4]
 422 0028 006A     		ldr	r0, [r0, #32]
 423              		.syntax unified
 424              	@ 117 "CMSIS/include/cmsis_gcc.h" 1
 425 002a 62B6     		cpsie i
 426              	@ 0 "" 2
 427              		.thumb
 428              		.syntax unified
 429 002c 38BD     		pop	{r3, r4, r5, pc}
 430              	.L70:
 431 002e 00BF     		.align	2
 432              	.L69:
 433 0030 10E000E0 		.word	-536813552
 434 0034 00000000 		.word	.LANCHOR2
 435 0038 00000000 		.word	.LANCHOR0
 436              		.size	core_tsk_handler, .-core_tsk_handler
 437              		.section	.text.core_tmr_insert,"ax",%progbits
 438              		.align	1
 439              		.global	core_tmr_insert
 440              		.syntax unified
 441              		.thumb
 442              		.thumb_func
 443              		.fpu fpv4-sp-d16
 444              		.type	core_tmr_insert, %function
 445              	core_tmr_insert:
 446              		@ args = 0, pretend = 0, frame = 0
 447              		@ frame_needed = 0, uses_anonymous_args = 0
 448 0000 08B5     		push	{r3, lr}
 449 0002 FFF7FEFF 		bl	priv_tmr_insert
 450 0006 034B     		ldr	r3, .L72
 451 0008 4FF08052 		mov	r2, #268435456
 452 000c C3F80021 		str	r2, [r3, #256]
 453 0010 08BD     		pop	{r3, pc}
 454              	.L73:
 455 0012 00BF     		.align	2
 456              	.L72:
ARM GAS  C:\Users\SZYMAN~1.RAJ\AppData\Local\Temp\ccISOjsl.s 			page 9


 457 0014 00E100E0 		.word	-536813312
 458              		.size	core_tmr_insert, .-core_tmr_insert
 459              		.section	.text.priv_tsk_wait,"ax",%progbits
 460              		.align	1
 461              		.syntax unified
 462              		.thumb
 463              		.thumb_func
 464              		.fpu fpv4-sp-d16
 465              		.type	priv_tsk_wait, %function
 466              	priv_tsk_wait:
 467              		@ args = 0, pretend = 0, frame = 0
 468              		@ frame_needed = 0, uses_anonymous_args = 0
 469 0000 10B5     		push	{r4, lr}
 470 0002 FFF7FEFF 		bl	core_tsk_append
 471 0006 C268     		ldr	r2, [r0, #12]
 472 0008 8368     		ldr	r3, [r0, #8]
 473 000a 9360     		str	r3, [r2, #8]
 474 000c 0221     		movs	r1, #2
 475 000e DA60     		str	r2, [r3, #12]
 476 0010 FFF7FEFF 		bl	core_tmr_insert
 477 0014 034B     		ldr	r3, .L75
 478 0016 4FF08052 		mov	r2, #268435456
 479 001a 5A60     		str	r2, [r3, #4]
 480              		.syntax unified
 481              	@ 117 "CMSIS/include/cmsis_gcc.h" 1
 482 001c 62B6     		cpsie i
 483              	@ 0 "" 2
 484              	@ 128 "CMSIS/include/cmsis_gcc.h" 1
 485 001e 72B6     		cpsid i
 486              	@ 0 "" 2
 487              		.thumb
 488              		.syntax unified
 489 0020 006C     		ldr	r0, [r0, #64]
 490 0022 10BD     		pop	{r4, pc}
 491              	.L76:
 492              		.align	2
 493              	.L75:
 494 0024 00ED00E0 		.word	-536810240
 495              		.size	priv_tsk_wait, .-priv_tsk_wait
 496              		.section	.text.core_tsk_waitUntil,"ax",%progbits
 497              		.align	1
 498              		.global	core_tsk_waitUntil
 499              		.syntax unified
 500              		.thumb
 501              		.thumb_func
 502              		.fpu fpv4-sp-d16
 503              		.type	core_tsk_waitUntil, %function
 504              	core_tsk_waitUntil:
 505              		@ args = 0, pretend = 0, frame = 0
 506              		@ frame_needed = 0, uses_anonymous_args = 0
 507              		@ link register save eliminated.
 508 0000 074B     		ldr	r3, .L79
 509 0002 1A68     		ldr	r2, [r3]
 510 0004 4FF08043 		mov	r3, #1073741824
 511 0008 5B6A     		ldr	r3, [r3, #36]
 512 000a 5361     		str	r3, [r2, #20]
 513 000c C91A     		subs	r1, r1, r3
ARM GAS  C:\Users\SZYMAN~1.RAJ\AppData\Local\Temp\ccISOjsl.s 			page 10


 514 000e 9161     		str	r1, [r2, #24]
 515 0010 19B1     		cbz	r1, .L78
 516 0012 0146     		mov	r1, r0
 517 0014 1046     		mov	r0, r2
 518 0016 FFF7FEBF 		b	priv_tsk_wait
 519              	.L78:
 520 001a 6FF00100 		mvn	r0, #1
 521 001e 7047     		bx	lr
 522              	.L80:
 523              		.align	2
 524              	.L79:
 525 0020 00000000 		.word	.LANCHOR2
 526              		.size	core_tsk_waitUntil, .-core_tsk_waitUntil
 527              		.section	.text.core_tsk_waitFor,"ax",%progbits
 528              		.align	1
 529              		.global	core_tsk_waitFor
 530              		.syntax unified
 531              		.thumb
 532              		.thumb_func
 533              		.fpu fpv4-sp-d16
 534              		.type	core_tsk_waitFor, %function
 535              	core_tsk_waitFor:
 536              		@ args = 0, pretend = 0, frame = 0
 537              		@ frame_needed = 0, uses_anonymous_args = 0
 538              		@ link register save eliminated.
 539 0000 074B     		ldr	r3, .L83
 540 0002 4FF08042 		mov	r2, #1073741824
 541 0006 1B68     		ldr	r3, [r3]
 542 0008 526A     		ldr	r2, [r2, #36]
 543 000a 5A61     		str	r2, [r3, #20]
 544 000c 9961     		str	r1, [r3, #24]
 545 000e 19B1     		cbz	r1, .L82
 546 0010 0146     		mov	r1, r0
 547 0012 1846     		mov	r0, r3
 548 0014 FFF7FEBF 		b	priv_tsk_wait
 549              	.L82:
 550 0018 6FF00100 		mvn	r0, #1
 551 001c 7047     		bx	lr
 552              	.L84:
 553 001e 00BF     		.align	2
 554              	.L83:
 555 0020 00000000 		.word	.LANCHOR2
 556              		.size	core_tsk_waitFor, .-core_tsk_waitFor
 557              		.section	.text.core_tmr_remove,"ax",%progbits
 558              		.align	1
 559              		.global	core_tmr_remove
 560              		.syntax unified
 561              		.thumb
 562              		.thumb_func
 563              		.fpu fpv4-sp-d16
 564              		.type	core_tmr_remove, %function
 565              	core_tmr_remove:
 566              		@ args = 0, pretend = 0, frame = 0
 567              		@ frame_needed = 0, uses_anonymous_args = 0
 568              		@ link register save eliminated.
 569 0000 0023     		movs	r3, #0
 570 0002 4360     		str	r3, [r0, #4]
ARM GAS  C:\Users\SZYMAN~1.RAJ\AppData\Local\Temp\ccISOjsl.s 			page 11


 571 0004 C268     		ldr	r2, [r0, #12]
 572 0006 8368     		ldr	r3, [r0, #8]
 573 0008 9360     		str	r3, [r2, #8]
 574 000a DA60     		str	r2, [r3, #12]
 575 000c 7047     		bx	lr
 576              		.size	core_tmr_remove, .-core_tmr_remove
 577              		.section	.text.core_tsk_wakeup,"ax",%progbits
 578              		.align	1
 579              		.global	core_tsk_wakeup
 580              		.syntax unified
 581              		.thumb
 582              		.thumb_func
 583              		.fpu fpv4-sp-d16
 584              		.type	core_tsk_wakeup, %function
 585              	core_tsk_wakeup:
 586              		@ args = 0, pretend = 0, frame = 0
 587              		@ frame_needed = 0, uses_anonymous_args = 0
 588 0000 10B5     		push	{r4, lr}
 589 0002 0446     		mov	r4, r0
 590 0004 28B1     		cbz	r0, .L87
 591 0006 FFF7FEFF 		bl	core_tsk_unlink
 592 000a FFF7FEFF 		bl	core_tmr_remove
 593 000e FFF7FEFF 		bl	core_tsk_insert
 594              	.L87:
 595 0012 2046     		mov	r0, r4
 596 0014 10BD     		pop	{r4, pc}
 597              		.size	core_tsk_wakeup, .-core_tsk_wakeup
 598              		.section	.text.core_one_wakeup,"ax",%progbits
 599              		.align	1
 600              		.global	core_one_wakeup
 601              		.syntax unified
 602              		.thumb
 603              		.thumb_func
 604              		.fpu fpv4-sp-d16
 605              		.type	core_one_wakeup, %function
 606              	core_one_wakeup:
 607              		@ args = 0, pretend = 0, frame = 0
 608              		@ frame_needed = 0, uses_anonymous_args = 0
 609              		@ link register save eliminated.
 610 0000 0068     		ldr	r0, [r0]
 611 0002 FFF7FEBF 		b	core_tsk_wakeup
 612              		.size	core_one_wakeup, .-core_one_wakeup
 613              		.section	.text.core_all_wakeup,"ax",%progbits
 614              		.align	1
 615              		.global	core_all_wakeup
 616              		.syntax unified
 617              		.thumb
 618              		.thumb_func
 619              		.fpu fpv4-sp-d16
 620              		.type	core_all_wakeup, %function
 621              	core_all_wakeup:
 622              		@ args = 0, pretend = 0, frame = 0
 623              		@ frame_needed = 0, uses_anonymous_args = 0
 624 0000 38B5     		push	{r3, r4, r5, lr}
 625 0002 0446     		mov	r4, r0
 626 0004 0D46     		mov	r5, r1
 627              	.L93:
ARM GAS  C:\Users\SZYMAN~1.RAJ\AppData\Local\Temp\ccISOjsl.s 			page 12


 628 0006 2946     		mov	r1, r5
 629 0008 2068     		ldr	r0, [r4]
 630 000a FFF7FEFF 		bl	core_tsk_wakeup
 631 000e 0028     		cmp	r0, #0
 632 0010 F9D1     		bne	.L93
 633 0012 38BD     		pop	{r3, r4, r5, pc}
 634              		.size	core_all_wakeup, .-core_all_wakeup
 635              		.section	.text.core_tmr_handler,"ax",%progbits
 636              		.align	1
 637              		.global	core_tmr_handler
 638              		.syntax unified
 639              		.thumb
 640              		.thumb_func
 641              		.fpu fpv4-sp-d16
 642              		.type	core_tmr_handler, %function
 643              	core_tmr_handler:
 644              		@ args = 0, pretend = 0, frame = 0
 645              		@ frame_needed = 0, uses_anonymous_args = 0
 646 0000 F8B5     		push	{r3, r4, r5, r6, r7, lr}
 647              		.syntax unified
 648              	@ 128 "CMSIS/include/cmsis_gcc.h" 1
 649 0002 72B6     		cpsid i
 650              	@ 0 "" 2
 651              		.thumb
 652              		.syntax unified
 653 0004 1B4F     		ldr	r7, .L115
 654 0006 4FF08045 		mov	r5, #1073741824
 655 000a 0026     		movs	r6, #0
 656              	.L96:
 657 000c FC68     		ldr	r4, [r7, #12]
 658 000e EE60     		str	r6, [r5, #12]
 659 0010 A369     		ldr	r3, [r4, #24]
 660 0012 5A1C     		adds	r2, r3, #1
 661 0014 2BD0     		beq	.L100
 662 0016 696A     		ldr	r1, [r5, #36]
 663 0018 6269     		ldr	r2, [r4, #20]
 664 001a 891A     		subs	r1, r1, r2
 665 001c 8B42     		cmp	r3, r1
 666 001e 08D9     		bls	.L101
 667 0020 9918     		adds	r1, r3, r2
 668 0022 6963     		str	r1, [r5, #52]
 669 0024 0221     		movs	r1, #2
 670 0026 E960     		str	r1, [r5, #12]
 671 0028 696A     		ldr	r1, [r5, #36]
 672 002a 891A     		subs	r1, r1, r2
 673 002c 8B42     		cmp	r3, r1
 674 002e 1ED8     		bhi	.L100
 675 0030 EE60     		str	r6, [r5, #12]
 676              	.L101:
 677 0032 6168     		ldr	r1, [r4, #4]
 678 0034 0329     		cmp	r1, #3
 679 0036 14D1     		bne	.L114
 680 0038 1344     		add	r3, r3, r2
 681 003a 6361     		str	r3, [r4, #20]
 682 003c E369     		ldr	r3, [r4, #28]
 683 003e A361     		str	r3, [r4, #24]
 684 0040 2369     		ldr	r3, [r4, #16]
ARM GAS  C:\Users\SZYMAN~1.RAJ\AppData\Local\Temp\ccISOjsl.s 			page 13


 685 0042 03B1     		cbz	r3, .L97
 686 0044 9847     		blx	r3
 687              	.L97:
 688 0046 2046     		mov	r0, r4
 689 0048 FFF7FEFF 		bl	core_tmr_remove
 690 004c A369     		ldr	r3, [r4, #24]
 691 004e 1BB1     		cbz	r3, .L98
 692 0050 0321     		movs	r1, #3
 693 0052 2046     		mov	r0, r4
 694 0054 FFF7FEFF 		bl	priv_tmr_insert
 695              	.L98:
 696 0058 0021     		movs	r1, #0
 697 005a 2046     		mov	r0, r4
 698 005c FFF7FEFF 		bl	core_all_wakeup
 699 0060 D4E7     		b	.L96
 700              	.L114:
 701 0062 6FF00101 		mvn	r1, #1
 702 0066 2046     		mov	r0, r4
 703 0068 FFF7FEFF 		bl	core_tsk_wakeup
 704 006c CEE7     		b	.L96
 705              	.L100:
 706              		.syntax unified
 707              	@ 117 "CMSIS/include/cmsis_gcc.h" 1
 708 006e 62B6     		cpsie i
 709              	@ 0 "" 2
 710              		.thumb
 711              		.syntax unified
 712 0070 F8BD     		pop	{r3, r4, r5, r6, r7, pc}
 713              	.L116:
 714 0072 00BF     		.align	2
 715              	.L115:
 716 0074 00000000 		.word	.LANCHOR1
 717              		.size	core_tmr_handler, .-core_tmr_handler
 718              		.section	.text.core_sys_alloc,"ax",%progbits
 719              		.align	1
 720              		.global	core_sys_alloc
 721              		.syntax unified
 722              		.thumb
 723              		.thumb_func
 724              		.fpu fpv4-sp-d16
 725              		.type	core_sys_alloc, %function
 726              	core_sys_alloc:
 727              		@ args = 0, pretend = 0, frame = 0
 728              		@ frame_needed = 0, uses_anonymous_args = 0
 729 0000 D0B5     		push	{r4, r6, r7, lr}
 730 0002 08B9     		cbnz	r0, .L118
 731              	.L120:
 732 0004 0020     		movs	r0, #0
 733 0006 D0BD     		pop	{r4, r6, r7, pc}
 734              	.L118:
 735 0008 0730     		adds	r0, r0, #7
 736 000a 20F00704 		bic	r4, r0, #7
 737 000e 2046     		mov	r0, r4
 738 0010 FFF7FEFF 		bl	malloc
 739 0014 0028     		cmp	r0, #0
 740 0016 F5D0     		beq	.L120
 741 0018 0444     		add	r4, r4, r0
ARM GAS  C:\Users\SZYMAN~1.RAJ\AppData\Local\Temp\ccISOjsl.s 			page 14


 742 001a 0346     		mov	r3, r0
 743 001c 0026     		movs	r6, #0
 744 001e 0027     		movs	r7, #0
 745              	.L121:
 746 0020 E3E80267 		strd	r6, [r3], #8
 747 0024 9C42     		cmp	r4, r3
 748 0026 FBD8     		bhi	.L121
 749 0028 D0BD     		pop	{r4, r6, r7, pc}
 750              		.size	core_sys_alloc, .-core_sys_alloc
 751              		.section	.text.core_sys_free,"ax",%progbits
 752              		.align	1
 753              		.global	core_sys_free
 754              		.syntax unified
 755              		.thumb
 756              		.thumb_func
 757              		.fpu fpv4-sp-d16
 758              		.type	core_sys_free, %function
 759              	core_sys_free:
 760              		@ args = 0, pretend = 0, frame = 0
 761              		@ frame_needed = 0, uses_anonymous_args = 0
 762              		@ link register save eliminated.
 763 0000 FFF7FEBF 		b	free
 764              		.size	core_sys_free, .-core_sys_free
 765              		.global	WAIT
 766              		.global	System
 767              		.global	IDLE
 768              		.global	MAIN
 769              		.section	.data.IDLE,"aw",%progbits
 770              		.align	2
 771              		.set	.LANCHOR0,. + 0
 772              		.type	IDLE, %object
 773              		.size	IDLE, 68
 774              	IDLE:
 775 0000 00000000 		.space	4
 776 0004 04000000 		.word	4
 777 0008 00000000 		.word	MAIN
 778 000c 00000000 		.word	MAIN
 779 0010 00000000 		.word	priv_tsk_idle
 780 0014 00000000 		.space	12
 780      00000000 
 780      00000000 
 781 0020 3C000000 		.word	IDLE_STACK+60
 782 0024 80000000 		.word	IDLE_STACK+128
 783 0028 00000000 		.space	28
 783      00000000 
 783      00000000 
 783      00000000 
 783      00000000 
 784              		.section	.data.IDLE_STACK,"aw",%progbits
 785              		.align	3
 786              		.type	IDLE_STACK, %object
 787              		.size	IDLE_STACK, 128
 788              	IDLE_STACK:
 789 0000 00000000 		.space	60
 789      00000000 
 789      00000000 
 789      00000000 
ARM GAS  C:\Users\SZYMAN~1.RAJ\AppData\Local\Temp\ccISOjsl.s 			page 15


 789      00000000 
 790 003c 00000000 		.word	0
 791 0040 00000000 		.word	0
 792 0044 00000000 		.word	0
 793 0048 00000000 		.word	0
 794 004c 00000000 		.word	0
 795 0050 00000000 		.word	0
 796 0054 00000000 		.word	0
 797 0058 00000000 		.word	0
 798 005c FDFFFFFF 		.word	-3
 799 0060 00000000 		.word	0
 800 0064 00000000 		.word	0
 801 0068 00000000 		.word	0
 802 006c 00000000 		.word	0
 803 0070 00000000 		.word	0
 804 0074 00000000 		.word	0
 805 0078 00000000 		.word	core_tsk_loop
 806 007c 00000001 		.word	16777216
 807              		.section	.data.MAIN,"aw",%progbits
 808              		.align	2
 809              		.type	MAIN, %object
 810              		.size	MAIN, 68
 811              	MAIN:
 812 0000 00000000 		.space	4
 813 0004 01000000 		.word	1
 814 0008 00000000 		.word	IDLE
 815 000c 00000000 		.word	IDLE
 816 0010 00000000 		.space	20
 816      00000000 
 816      00000000 
 816      00000000 
 816      00000000 
 817 0024 00000000 		.word	__initial_sp
 818 0028 00000000 		.word	0
 819 002c 00000000 		.word	0
 820 0030 00000000 		.space	20
 820      00000000 
 820      00000000 
 820      00000000 
 820      00000000 
 821              		.section	.data.System,"aw",%progbits
 822              		.align	2
 823              		.set	.LANCHOR2,. + 0
 824              		.type	System, %object
 825              		.size	System, 4
 826              	System:
 827 0000 00000000 		.word	MAIN
 828              		.section	.data.WAIT,"aw",%progbits
 829              		.align	2
 830              		.set	.LANCHOR1,. + 0
 831              		.type	WAIT, %object
 832              		.size	WAIT, 32
 833              	WAIT:
 834 0000 00000000 		.space	4
 835 0004 03000000 		.word	3
 836 0008 00000000 		.word	WAIT
 837 000c 00000000 		.word	WAIT
ARM GAS  C:\Users\SZYMAN~1.RAJ\AppData\Local\Temp\ccISOjsl.s 			page 16


 838 0010 00000000 		.space	8
 838      00000000 
 839 0018 FFFFFFFF 		.word	-1
 840 001c 00000000 		.space	4
 841              		.ident	"GCC: (GNU Tools for ARM Embedded Processors) 6.2.1 20161205 (release) [ARM/embedded-6-bran
ARM GAS  C:\Users\SZYMAN~1.RAJ\AppData\Local\Temp\ccISOjsl.s 			page 17

