ARM GAS  C:\Users\SZYMAN~1.RAJ\AppData\Local\Temp\ccDf3ztF.s 			page 1


   1              		.cpu cortex-m4
   2              		.eabi_attribute 27, 1
   3              		.eabi_attribute 28, 1
   4              		.eabi_attribute 23, 1
   5              		.eabi_attribute 24, 1
   6              		.eabi_attribute 25, 1
   7              		.eabi_attribute 26, 1
   8              		.eabi_attribute 30, 4
   9              		.eabi_attribute 34, 1
  10              		.eabi_attribute 18, 4
  11              		.file	"os_evt.c"
  12              		.section	.text.evt_init,"ax",%progbits
  13              		.align	1
  14              		.global	evt_init
  15              		.syntax unified
  16              		.thumb
  17              		.thumb_func
  18              		.fpu fpv4-sp-d16
  19              		.type	evt_init, %function
  20              	evt_init:
  21              		@ args = 0, pretend = 0, frame = 0
  22              		@ frame_needed = 0, uses_anonymous_args = 0
  23              		@ link register save eliminated.
  24              		.syntax unified
  25              	@ 345 "CMSIS/include/cmsis_gcc.h" 1
  26 0000 EFF31083 		MRS r3, primask
  27              	@ 0 "" 2
  28              	@ 128 "CMSIS/include/cmsis_gcc.h" 1
  29 0004 72B6     		cpsid i
  30              	@ 0 "" 2
  31              		.thumb
  32              		.syntax unified
  33 0006 0022     		movs	r2, #0
  34 0008 0260     		str	r2, [r0]	@ unaligned
  35              		.syntax unified
  36              	@ 373 "CMSIS/include/cmsis_gcc.h" 1
  37 000a 83F31088 		MSR primask, r3
  38              	@ 0 "" 2
  39              		.thumb
  40              		.syntax unified
  41 000e 7047     		bx	lr
  42              		.size	evt_init, .-evt_init
  43              		.section	.text.evt_create,"ax",%progbits
  44              		.align	1
  45              		.global	evt_create
  46              		.syntax unified
  47              		.thumb
  48              		.thumb_func
  49              		.fpu fpv4-sp-d16
  50              		.type	evt_create, %function
  51              	evt_create:
  52              		@ args = 0, pretend = 0, frame = 0
  53              		@ frame_needed = 0, uses_anonymous_args = 0
  54 0000 10B5     		push	{r4, lr}
  55              		.syntax unified
  56              	@ 345 "CMSIS/include/cmsis_gcc.h" 1
  57 0002 EFF31084 		MRS r4, primask
ARM GAS  C:\Users\SZYMAN~1.RAJ\AppData\Local\Temp\ccDf3ztF.s 			page 2


  58              	@ 0 "" 2
  59              	@ 128 "CMSIS/include/cmsis_gcc.h" 1
  60 0006 72B6     		cpsid i
  61              	@ 0 "" 2
  62              		.thumb
  63              		.syntax unified
  64 0008 0420     		movs	r0, #4
  65 000a FFF7FEFF 		bl	core_sys_alloc
  66 000e 0146     		mov	r1, r0
  67 0010 08B1     		cbz	r0, .L3
  68 0012 FFF7FEFF 		bl	evt_init
  69              	.L3:
  70              		.syntax unified
  71              	@ 373 "CMSIS/include/cmsis_gcc.h" 1
  72 0016 84F31088 		MSR primask, r4
  73              	@ 0 "" 2
  74              		.thumb
  75              		.syntax unified
  76 001a 0846     		mov	r0, r1
  77 001c 10BD     		pop	{r4, pc}
  78              		.size	evt_create, .-evt_create
  79              		.section	.text.evt_kill,"ax",%progbits
  80              		.align	1
  81              		.global	evt_kill
  82              		.syntax unified
  83              		.thumb
  84              		.thumb_func
  85              		.fpu fpv4-sp-d16
  86              		.type	evt_kill, %function
  87              	evt_kill:
  88              		@ args = 0, pretend = 0, frame = 0
  89              		@ frame_needed = 0, uses_anonymous_args = 0
  90 0000 10B5     		push	{r4, lr}
  91              		.syntax unified
  92              	@ 345 "CMSIS/include/cmsis_gcc.h" 1
  93 0002 EFF31084 		MRS r4, primask
  94              	@ 0 "" 2
  95              	@ 128 "CMSIS/include/cmsis_gcc.h" 1
  96 0006 72B6     		cpsid i
  97              	@ 0 "" 2
  98              		.thumb
  99              		.syntax unified
 100 0008 4FF0FF31 		mov	r1, #-1
 101 000c FFF7FEFF 		bl	core_all_wakeup
 102              		.syntax unified
 103              	@ 373 "CMSIS/include/cmsis_gcc.h" 1
 104 0010 84F31088 		MSR primask, r4
 105              	@ 0 "" 2
 106              		.thumb
 107              		.syntax unified
 108 0014 10BD     		pop	{r4, pc}
 109              		.size	evt_kill, .-evt_kill
 110              		.section	.text.evt_waitUntil,"ax",%progbits
 111              		.align	1
 112              		.global	evt_waitUntil
 113              		.syntax unified
 114              		.thumb
ARM GAS  C:\Users\SZYMAN~1.RAJ\AppData\Local\Temp\ccDf3ztF.s 			page 3


 115              		.thumb_func
 116              		.fpu fpv4-sp-d16
 117              		.type	evt_waitUntil, %function
 118              	evt_waitUntil:
 119              		@ args = 0, pretend = 0, frame = 0
 120              		@ frame_needed = 0, uses_anonymous_args = 0
 121 0000 10B5     		push	{r4, lr}
 122              		.syntax unified
 123              	@ 345 "CMSIS/include/cmsis_gcc.h" 1
 124 0002 EFF31084 		MRS r4, primask
 125              	@ 0 "" 2
 126              	@ 128 "CMSIS/include/cmsis_gcc.h" 1
 127 0006 72B6     		cpsid i
 128              	@ 0 "" 2
 129              		.thumb
 130              		.syntax unified
 131 0008 FFF7FEFF 		bl	core_tsk_waitUntil
 132              		.syntax unified
 133              	@ 373 "CMSIS/include/cmsis_gcc.h" 1
 134 000c 84F31088 		MSR primask, r4
 135              	@ 0 "" 2
 136              		.thumb
 137              		.syntax unified
 138 0010 10BD     		pop	{r4, pc}
 139              		.size	evt_waitUntil, .-evt_waitUntil
 140              		.section	.text.evt_waitFor,"ax",%progbits
 141              		.align	1
 142              		.global	evt_waitFor
 143              		.syntax unified
 144              		.thumb
 145              		.thumb_func
 146              		.fpu fpv4-sp-d16
 147              		.type	evt_waitFor, %function
 148              	evt_waitFor:
 149              		@ args = 0, pretend = 0, frame = 0
 150              		@ frame_needed = 0, uses_anonymous_args = 0
 151 0000 10B5     		push	{r4, lr}
 152              		.syntax unified
 153              	@ 345 "CMSIS/include/cmsis_gcc.h" 1
 154 0002 EFF31084 		MRS r4, primask
 155              	@ 0 "" 2
 156              	@ 128 "CMSIS/include/cmsis_gcc.h" 1
 157 0006 72B6     		cpsid i
 158              	@ 0 "" 2
 159              		.thumb
 160              		.syntax unified
 161 0008 FFF7FEFF 		bl	core_tsk_waitFor
 162              		.syntax unified
 163              	@ 373 "CMSIS/include/cmsis_gcc.h" 1
 164 000c 84F31088 		MSR primask, r4
 165              	@ 0 "" 2
 166              		.thumb
 167              		.syntax unified
 168 0010 10BD     		pop	{r4, pc}
 169              		.size	evt_waitFor, .-evt_waitFor
 170              		.section	.text.evt_give,"ax",%progbits
 171              		.align	1
ARM GAS  C:\Users\SZYMAN~1.RAJ\AppData\Local\Temp\ccDf3ztF.s 			page 4


 172              		.global	evt_give
 173              		.syntax unified
 174              		.thumb
 175              		.thumb_func
 176              		.fpu fpv4-sp-d16
 177              		.type	evt_give, %function
 178              	evt_give:
 179              		@ args = 0, pretend = 0, frame = 0
 180              		@ frame_needed = 0, uses_anonymous_args = 0
 181 0000 10B5     		push	{r4, lr}
 182              		.syntax unified
 183              	@ 345 "CMSIS/include/cmsis_gcc.h" 1
 184 0002 EFF31084 		MRS r4, primask
 185              	@ 0 "" 2
 186              	@ 128 "CMSIS/include/cmsis_gcc.h" 1
 187 0006 72B6     		cpsid i
 188              	@ 0 "" 2
 189              		.thumb
 190              		.syntax unified
 191 0008 FFF7FEFF 		bl	core_all_wakeup
 192              		.syntax unified
 193              	@ 373 "CMSIS/include/cmsis_gcc.h" 1
 194 000c 84F31088 		MSR primask, r4
 195              	@ 0 "" 2
 196              		.thumb
 197              		.syntax unified
 198 0010 10BD     		pop	{r4, pc}
 199              		.size	evt_give, .-evt_give
 200              		.ident	"GCC: (GNU Tools for ARM Embedded Processors) 6.2.1 20161205 (release) [ARM/embedded-6-bran
ARM GAS  C:\Users\SZYMAN~1.RAJ\AppData\Local\Temp\ccDf3ztF.s 			page 5

