ARM GAS  C:\Users\SZYMAN~1.RAJ\AppData\Local\Temp\ccNO5bR3.s 			page 1


   1              		.cpu cortex-m4
   2              		.eabi_attribute 27, 1
   3              		.eabi_attribute 28, 1
   4              		.eabi_attribute 23, 1
   5              		.eabi_attribute 24, 1
   6              		.eabi_attribute 25, 1
   7              		.eabi_attribute 26, 1
   8              		.eabi_attribute 30, 4
   9              		.eabi_attribute 34, 1
  10              		.eabi_attribute 18, 4
  11              		.file	"os_lst.c"
  12              		.section	.text.lst_init,"ax",%progbits
  13              		.align	1
  14              		.global	lst_init
  15              		.syntax unified
  16              		.thumb
  17              		.thumb_func
  18              		.fpu fpv4-sp-d16
  19              		.type	lst_init, %function
  20              	lst_init:
  21              		@ args = 0, pretend = 0, frame = 0
  22              		@ frame_needed = 0, uses_anonymous_args = 0
  23              		@ link register save eliminated.
  24              		.syntax unified
  25              	@ 345 "CMSIS/include/cmsis_gcc.h" 1
  26 0000 EFF31083 		MRS r3, primask
  27              	@ 0 "" 2
  28              	@ 128 "CMSIS/include/cmsis_gcc.h" 1
  29 0004 72B6     		cpsid i
  30              	@ 0 "" 2
  31              		.thumb
  32              		.syntax unified
  33 0006 0022     		movs	r2, #0
  34 0008 0260     		str	r2, [r0]	@ unaligned
  35 000a 4260     		str	r2, [r0, #4]	@ unaligned
  36              		.syntax unified
  37              	@ 373 "CMSIS/include/cmsis_gcc.h" 1
  38 000c 83F31088 		MSR primask, r3
  39              	@ 0 "" 2
  40              		.thumb
  41              		.syntax unified
  42 0010 7047     		bx	lr
  43              		.size	lst_init, .-lst_init
  44              		.section	.text.lst_create,"ax",%progbits
  45              		.align	1
  46              		.global	lst_create
  47              		.syntax unified
  48              		.thumb
  49              		.thumb_func
  50              		.fpu fpv4-sp-d16
  51              		.type	lst_create, %function
  52              	lst_create:
  53              		@ args = 0, pretend = 0, frame = 0
  54              		@ frame_needed = 0, uses_anonymous_args = 0
  55 0000 10B5     		push	{r4, lr}
  56              		.syntax unified
  57              	@ 345 "CMSIS/include/cmsis_gcc.h" 1
ARM GAS  C:\Users\SZYMAN~1.RAJ\AppData\Local\Temp\ccNO5bR3.s 			page 2


  58 0002 EFF31084 		MRS r4, primask
  59              	@ 0 "" 2
  60              	@ 128 "CMSIS/include/cmsis_gcc.h" 1
  61 0006 72B6     		cpsid i
  62              	@ 0 "" 2
  63              		.thumb
  64              		.syntax unified
  65 0008 0820     		movs	r0, #8
  66 000a FFF7FEFF 		bl	core_sys_alloc
  67 000e 0146     		mov	r1, r0
  68 0010 08B1     		cbz	r0, .L3
  69 0012 FFF7FEFF 		bl	lst_init
  70              	.L3:
  71              		.syntax unified
  72              	@ 373 "CMSIS/include/cmsis_gcc.h" 1
  73 0016 84F31088 		MSR primask, r4
  74              	@ 0 "" 2
  75              		.thumb
  76              		.syntax unified
  77 001a 0846     		mov	r0, r1
  78 001c 10BD     		pop	{r4, pc}
  79              		.size	lst_create, .-lst_create
  80              		.section	.text.lst_kill,"ax",%progbits
  81              		.align	1
  82              		.global	lst_kill
  83              		.syntax unified
  84              		.thumb
  85              		.thumb_func
  86              		.fpu fpv4-sp-d16
  87              		.type	lst_kill, %function
  88              	lst_kill:
  89              		@ args = 0, pretend = 0, frame = 0
  90              		@ frame_needed = 0, uses_anonymous_args = 0
  91 0000 10B5     		push	{r4, lr}
  92              		.syntax unified
  93              	@ 345 "CMSIS/include/cmsis_gcc.h" 1
  94 0002 EFF31084 		MRS r4, primask
  95              	@ 0 "" 2
  96              	@ 128 "CMSIS/include/cmsis_gcc.h" 1
  97 0006 72B6     		cpsid i
  98              	@ 0 "" 2
  99              		.thumb
 100              		.syntax unified
 101 0008 4FF0FF31 		mov	r1, #-1
 102 000c FFF7FEFF 		bl	core_all_wakeup
 103              		.syntax unified
 104              	@ 373 "CMSIS/include/cmsis_gcc.h" 1
 105 0010 84F31088 		MSR primask, r4
 106              	@ 0 "" 2
 107              		.thumb
 108              		.syntax unified
 109 0014 10BD     		pop	{r4, pc}
 110              		.size	lst_kill, .-lst_kill
 111              		.section	.text.lst_waitUntil,"ax",%progbits
 112              		.align	1
 113              		.global	lst_waitUntil
 114              		.syntax unified
ARM GAS  C:\Users\SZYMAN~1.RAJ\AppData\Local\Temp\ccNO5bR3.s 			page 3


 115              		.thumb
 116              		.thumb_func
 117              		.fpu fpv4-sp-d16
 118              		.type	lst_waitUntil, %function
 119              	lst_waitUntil:
 120              		@ args = 0, pretend = 0, frame = 0
 121              		@ frame_needed = 0, uses_anonymous_args = 0
 122 0000 38B5     		push	{r3, r4, r5, lr}
 123              		.syntax unified
 124              	@ 345 "CMSIS/include/cmsis_gcc.h" 1
 125 0002 EFF31085 		MRS r5, primask
 126              	@ 0 "" 2
 127              	@ 128 "CMSIS/include/cmsis_gcc.h" 1
 128 0006 72B6     		cpsid i
 129              	@ 0 "" 2
 130              		.thumb
 131              		.syntax unified
 132 0008 4368     		ldr	r3, [r0, #4]
 133 000a 43B1     		cbz	r3, .L9
 134 000c 0433     		adds	r3, r3, #4
 135 000e 0B60     		str	r3, [r1]
 136 0010 4368     		ldr	r3, [r0, #4]
 137 0012 1B68     		ldr	r3, [r3]
 138 0014 4360     		str	r3, [r0, #4]
 139 0016 0020     		movs	r0, #0
 140              	.L10:
 141              		.syntax unified
 142              	@ 373 "CMSIS/include/cmsis_gcc.h" 1
 143 0018 85F31088 		MSR primask, r5
 144              	@ 0 "" 2
 145              		.thumb
 146              		.syntax unified
 147 001c 38BD     		pop	{r3, r4, r5, pc}
 148              	.L9:
 149 001e 034B     		ldr	r3, .L11
 150 0020 1B68     		ldr	r3, [r3]
 151 0022 D963     		str	r1, [r3, #60]
 152 0024 1146     		mov	r1, r2
 153 0026 FFF7FEFF 		bl	core_tsk_waitUntil
 154 002a F5E7     		b	.L10
 155              	.L12:
 156              		.align	2
 157              	.L11:
 158 002c 00000000 		.word	System
 159              		.size	lst_waitUntil, .-lst_waitUntil
 160              		.section	.text.lst_waitFor,"ax",%progbits
 161              		.align	1
 162              		.global	lst_waitFor
 163              		.syntax unified
 164              		.thumb
 165              		.thumb_func
 166              		.fpu fpv4-sp-d16
 167              		.type	lst_waitFor, %function
 168              	lst_waitFor:
 169              		@ args = 0, pretend = 0, frame = 0
 170              		@ frame_needed = 0, uses_anonymous_args = 0
 171 0000 38B5     		push	{r3, r4, r5, lr}
ARM GAS  C:\Users\SZYMAN~1.RAJ\AppData\Local\Temp\ccNO5bR3.s 			page 4


 172              		.syntax unified
 173              	@ 345 "CMSIS/include/cmsis_gcc.h" 1
 174 0002 EFF31085 		MRS r5, primask
 175              	@ 0 "" 2
 176              	@ 128 "CMSIS/include/cmsis_gcc.h" 1
 177 0006 72B6     		cpsid i
 178              	@ 0 "" 2
 179              		.thumb
 180              		.syntax unified
 181 0008 4368     		ldr	r3, [r0, #4]
 182 000a 43B1     		cbz	r3, .L14
 183 000c 0433     		adds	r3, r3, #4
 184 000e 0B60     		str	r3, [r1]
 185 0010 4368     		ldr	r3, [r0, #4]
 186 0012 1B68     		ldr	r3, [r3]
 187 0014 4360     		str	r3, [r0, #4]
 188 0016 0020     		movs	r0, #0
 189              	.L15:
 190              		.syntax unified
 191              	@ 373 "CMSIS/include/cmsis_gcc.h" 1
 192 0018 85F31088 		MSR primask, r5
 193              	@ 0 "" 2
 194              		.thumb
 195              		.syntax unified
 196 001c 38BD     		pop	{r3, r4, r5, pc}
 197              	.L14:
 198 001e 034B     		ldr	r3, .L16
 199 0020 1B68     		ldr	r3, [r3]
 200 0022 D963     		str	r1, [r3, #60]
 201 0024 1146     		mov	r1, r2
 202 0026 FFF7FEFF 		bl	core_tsk_waitFor
 203 002a F5E7     		b	.L15
 204              	.L17:
 205              		.align	2
 206              	.L16:
 207 002c 00000000 		.word	System
 208              		.size	lst_waitFor, .-lst_waitFor
 209              		.section	.text.lst_give,"ax",%progbits
 210              		.align	1
 211              		.global	lst_give
 212              		.syntax unified
 213              		.thumb
 214              		.thumb_func
 215              		.fpu fpv4-sp-d16
 216              		.type	lst_give, %function
 217              	lst_give:
 218              		@ args = 0, pretend = 0, frame = 0
 219              		@ frame_needed = 0, uses_anonymous_args = 0
 220 0000 70B5     		push	{r4, r5, r6, lr}
 221 0002 0446     		mov	r4, r0
 222 0004 0D46     		mov	r5, r1
 223              		.syntax unified
 224              	@ 345 "CMSIS/include/cmsis_gcc.h" 1
 225 0006 EFF31086 		MRS r6, primask
 226              	@ 0 "" 2
 227              	@ 128 "CMSIS/include/cmsis_gcc.h" 1
 228 000a 72B6     		cpsid i
ARM GAS  C:\Users\SZYMAN~1.RAJ\AppData\Local\Temp\ccNO5bR3.s 			page 5


 229              	@ 0 "" 2
 230              		.thumb
 231              		.syntax unified
 232 000c 0021     		movs	r1, #0
 233 000e FFF7FEFF 		bl	core_one_wakeup
 234 0012 20B1     		cbz	r0, .L19
 235 0014 C36B     		ldr	r3, [r0, #60]
 236 0016 1D60     		str	r5, [r3]
 237              	.L20:
 238              		.syntax unified
 239              	@ 373 "CMSIS/include/cmsis_gcc.h" 1
 240 0018 86F31088 		MSR primask, r6
 241              	@ 0 "" 2
 242              		.thumb
 243              		.syntax unified
 244 001c 70BD     		pop	{r4, r5, r6, pc}
 245              	.L19:
 246 001e 201D     		adds	r0, r4, #4
 247              	.L21:
 248 0020 0368     		ldr	r3, [r0]
 249 0022 23B9     		cbnz	r3, .L22
 250 0024 2A1F     		subs	r2, r5, #4
 251 0026 0260     		str	r2, [r0]
 252 0028 45F8043C 		str	r3, [r5, #-4]
 253 002c F4E7     		b	.L20
 254              	.L22:
 255 002e 1846     		mov	r0, r3
 256 0030 F6E7     		b	.L21
 257              		.size	lst_give, .-lst_give
 258              		.ident	"GCC: (GNU Tools for ARM Embedded Processors) 6.2.1 20161205 (release) [ARM/embedded-6-bran
ARM GAS  C:\Users\SZYMAN~1.RAJ\AppData\Local\Temp\ccNO5bR3.s 			page 6

