ARM GAS  C:\Users\SZYMAN~1.RAJ\AppData\Local\Temp\cc8mlypG.s 			page 1


   1              		.cpu cortex-m4
   2              		.eabi_attribute 27, 1
   3              		.eabi_attribute 28, 1
   4              		.eabi_attribute 23, 1
   5              		.eabi_attribute 24, 1
   6              		.eabi_attribute 25, 1
   7              		.eabi_attribute 26, 1
   8              		.eabi_attribute 30, 4
   9              		.eabi_attribute 34, 1
  10              		.eabi_attribute 18, 4
  11              		.file	"os_mut.c"
  12              		.section	.text.mut_init,"ax",%progbits
  13              		.align	1
  14              		.global	mut_init
  15              		.syntax unified
  16              		.thumb
  17              		.thumb_func
  18              		.fpu fpv4-sp-d16
  19              		.type	mut_init, %function
  20              	mut_init:
  21              		@ args = 0, pretend = 0, frame = 0
  22              		@ frame_needed = 0, uses_anonymous_args = 0
  23              		@ link register save eliminated.
  24              		.syntax unified
  25              	@ 345 "CMSIS/include/cmsis_gcc.h" 1
  26 0000 EFF31083 		MRS r3, primask
  27              	@ 0 "" 2
  28              	@ 128 "CMSIS/include/cmsis_gcc.h" 1
  29 0004 72B6     		cpsid i
  30              	@ 0 "" 2
  31              		.thumb
  32              		.syntax unified
  33 0006 0022     		movs	r2, #0
  34 0008 0260     		str	r2, [r0]	@ unaligned
  35 000a 4260     		str	r2, [r0, #4]	@ unaligned
  36              		.syntax unified
  37              	@ 373 "CMSIS/include/cmsis_gcc.h" 1
  38 000c 83F31088 		MSR primask, r3
  39              	@ 0 "" 2
  40              		.thumb
  41              		.syntax unified
  42 0010 7047     		bx	lr
  43              		.size	mut_init, .-mut_init
  44              		.section	.text.mut_create,"ax",%progbits
  45              		.align	1
  46              		.global	mut_create
  47              		.syntax unified
  48              		.thumb
  49              		.thumb_func
  50              		.fpu fpv4-sp-d16
  51              		.type	mut_create, %function
  52              	mut_create:
  53              		@ args = 0, pretend = 0, frame = 0
  54              		@ frame_needed = 0, uses_anonymous_args = 0
  55 0000 10B5     		push	{r4, lr}
  56              		.syntax unified
  57              	@ 345 "CMSIS/include/cmsis_gcc.h" 1
ARM GAS  C:\Users\SZYMAN~1.RAJ\AppData\Local\Temp\cc8mlypG.s 			page 2


  58 0002 EFF31084 		MRS r4, primask
  59              	@ 0 "" 2
  60              	@ 128 "CMSIS/include/cmsis_gcc.h" 1
  61 0006 72B6     		cpsid i
  62              	@ 0 "" 2
  63              		.thumb
  64              		.syntax unified
  65 0008 0820     		movs	r0, #8
  66 000a FFF7FEFF 		bl	core_sys_alloc
  67 000e 0146     		mov	r1, r0
  68 0010 08B1     		cbz	r0, .L3
  69 0012 FFF7FEFF 		bl	mut_init
  70              	.L3:
  71              		.syntax unified
  72              	@ 373 "CMSIS/include/cmsis_gcc.h" 1
  73 0016 84F31088 		MSR primask, r4
  74              	@ 0 "" 2
  75              		.thumb
  76              		.syntax unified
  77 001a 0846     		mov	r0, r1
  78 001c 10BD     		pop	{r4, pc}
  79              		.size	mut_create, .-mut_create
  80              		.section	.text.mut_kill,"ax",%progbits
  81              		.align	1
  82              		.global	mut_kill
  83              		.syntax unified
  84              		.thumb
  85              		.thumb_func
  86              		.fpu fpv4-sp-d16
  87              		.type	mut_kill, %function
  88              	mut_kill:
  89              		@ args = 0, pretend = 0, frame = 0
  90              		@ frame_needed = 0, uses_anonymous_args = 0
  91 0000 10B5     		push	{r4, lr}
  92              		.syntax unified
  93              	@ 345 "CMSIS/include/cmsis_gcc.h" 1
  94 0002 EFF31084 		MRS r4, primask
  95              	@ 0 "" 2
  96              	@ 128 "CMSIS/include/cmsis_gcc.h" 1
  97 0006 72B6     		cpsid i
  98              	@ 0 "" 2
  99              		.thumb
 100              		.syntax unified
 101 0008 4FF0FF31 		mov	r1, #-1
 102 000c FFF7FEFF 		bl	core_all_wakeup
 103              		.syntax unified
 104              	@ 373 "CMSIS/include/cmsis_gcc.h" 1
 105 0010 84F31088 		MSR primask, r4
 106              	@ 0 "" 2
 107              		.thumb
 108              		.syntax unified
 109 0014 10BD     		pop	{r4, pc}
 110              		.size	mut_kill, .-mut_kill
 111              		.section	.text.mut_waitUntil,"ax",%progbits
 112              		.align	1
 113              		.global	mut_waitUntil
 114              		.syntax unified
ARM GAS  C:\Users\SZYMAN~1.RAJ\AppData\Local\Temp\cc8mlypG.s 			page 3


 115              		.thumb
 116              		.thumb_func
 117              		.fpu fpv4-sp-d16
 118              		.type	mut_waitUntil, %function
 119              	mut_waitUntil:
 120              		@ args = 0, pretend = 0, frame = 0
 121              		@ frame_needed = 0, uses_anonymous_args = 0
 122 0000 38B5     		push	{r3, r4, r5, lr}
 123              		.syntax unified
 124              	@ 345 "CMSIS/include/cmsis_gcc.h" 1
 125 0002 EFF31085 		MRS r5, primask
 126              	@ 0 "" 2
 127              	@ 128 "CMSIS/include/cmsis_gcc.h" 1
 128 0006 72B6     		cpsid i
 129              	@ 0 "" 2
 130              		.thumb
 131              		.syntax unified
 132 0008 084A     		ldr	r2, .L12
 133 000a 4368     		ldr	r3, [r0, #4]
 134 000c 1268     		ldr	r2, [r2]
 135 000e 23B9     		cbnz	r3, .L9
 136 0010 4260     		str	r2, [r0, #4]
 137 0012 1846     		mov	r0, r3
 138              	.L10:
 139              		.syntax unified
 140              	@ 373 "CMSIS/include/cmsis_gcc.h" 1
 141 0014 85F31088 		MSR primask, r5
 142              	@ 0 "" 2
 143              		.thumb
 144              		.syntax unified
 145 0018 38BD     		pop	{r3, r4, r5, pc}
 146              	.L9:
 147 001a 9342     		cmp	r3, r2
 148 001c 02D0     		beq	.L11
 149 001e FFF7FEFF 		bl	core_tsk_waitUntil
 150 0022 F7E7     		b	.L10
 151              	.L11:
 152 0024 6FF00100 		mvn	r0, #1
 153 0028 F4E7     		b	.L10
 154              	.L13:
 155 002a 00BF     		.align	2
 156              	.L12:
 157 002c 00000000 		.word	System
 158              		.size	mut_waitUntil, .-mut_waitUntil
 159              		.section	.text.mut_waitFor,"ax",%progbits
 160              		.align	1
 161              		.global	mut_waitFor
 162              		.syntax unified
 163              		.thumb
 164              		.thumb_func
 165              		.fpu fpv4-sp-d16
 166              		.type	mut_waitFor, %function
 167              	mut_waitFor:
 168              		@ args = 0, pretend = 0, frame = 0
 169              		@ frame_needed = 0, uses_anonymous_args = 0
 170 0000 38B5     		push	{r3, r4, r5, lr}
 171              		.syntax unified
ARM GAS  C:\Users\SZYMAN~1.RAJ\AppData\Local\Temp\cc8mlypG.s 			page 4


 172              	@ 345 "CMSIS/include/cmsis_gcc.h" 1
 173 0002 EFF31085 		MRS r5, primask
 174              	@ 0 "" 2
 175              	@ 128 "CMSIS/include/cmsis_gcc.h" 1
 176 0006 72B6     		cpsid i
 177              	@ 0 "" 2
 178              		.thumb
 179              		.syntax unified
 180 0008 084A     		ldr	r2, .L18
 181 000a 4368     		ldr	r3, [r0, #4]
 182 000c 1268     		ldr	r2, [r2]
 183 000e 23B9     		cbnz	r3, .L15
 184 0010 4260     		str	r2, [r0, #4]
 185 0012 1846     		mov	r0, r3
 186              	.L16:
 187              		.syntax unified
 188              	@ 373 "CMSIS/include/cmsis_gcc.h" 1
 189 0014 85F31088 		MSR primask, r5
 190              	@ 0 "" 2
 191              		.thumb
 192              		.syntax unified
 193 0018 38BD     		pop	{r3, r4, r5, pc}
 194              	.L15:
 195 001a 9342     		cmp	r3, r2
 196 001c 02D0     		beq	.L17
 197 001e FFF7FEFF 		bl	core_tsk_waitFor
 198 0022 F7E7     		b	.L16
 199              	.L17:
 200 0024 6FF00100 		mvn	r0, #1
 201 0028 F4E7     		b	.L16
 202              	.L19:
 203 002a 00BF     		.align	2
 204              	.L18:
 205 002c 00000000 		.word	System
 206              		.size	mut_waitFor, .-mut_waitFor
 207              		.section	.text.mut_give,"ax",%progbits
 208              		.align	1
 209              		.global	mut_give
 210              		.syntax unified
 211              		.thumb
 212              		.thumb_func
 213              		.fpu fpv4-sp-d16
 214              		.type	mut_give, %function
 215              	mut_give:
 216              		@ args = 0, pretend = 0, frame = 0
 217              		@ frame_needed = 0, uses_anonymous_args = 0
 218 0000 38B5     		push	{r3, r4, r5, lr}
 219 0002 0446     		mov	r4, r0
 220              		.syntax unified
 221              	@ 345 "CMSIS/include/cmsis_gcc.h" 1
 222 0004 EFF31085 		MRS r5, primask
 223              	@ 0 "" 2
 224              	@ 128 "CMSIS/include/cmsis_gcc.h" 1
 225 0008 72B6     		cpsid i
 226              	@ 0 "" 2
 227              		.thumb
 228              		.syntax unified
ARM GAS  C:\Users\SZYMAN~1.RAJ\AppData\Local\Temp\cc8mlypG.s 			page 5


 229 000a 084B     		ldr	r3, .L23
 230 000c 4268     		ldr	r2, [r0, #4]
 231 000e 1B68     		ldr	r3, [r3]
 232 0010 9A42     		cmp	r2, r3
 233 0012 07D1     		bne	.L22
 234 0014 0021     		movs	r1, #0
 235 0016 FFF7FEFF 		bl	core_one_wakeup
 236 001a 6060     		str	r0, [r4, #4]
 237 001c 0020     		movs	r0, #0
 238              	.L21:
 239              		.syntax unified
 240              	@ 373 "CMSIS/include/cmsis_gcc.h" 1
 241 001e 85F31088 		MSR primask, r5
 242              	@ 0 "" 2
 243              		.thumb
 244              		.syntax unified
 245 0022 38BD     		pop	{r3, r4, r5, pc}
 246              	.L22:
 247 0024 6FF00100 		mvn	r0, #1
 248 0028 F9E7     		b	.L21
 249              	.L24:
 250 002a 00BF     		.align	2
 251              	.L23:
 252 002c 00000000 		.word	System
 253              		.size	mut_give, .-mut_give
 254              		.ident	"GCC: (GNU Tools for ARM Embedded Processors) 6.2.1 20161205 (release) [ARM/embedded-6-bran
ARM GAS  C:\Users\SZYMAN~1.RAJ\AppData\Local\Temp\cc8mlypG.s 			page 6

