ARM GAS  C:\Users\SZYMAN~1.RAJ\AppData\Local\Temp\ccsj0iV2.s 			page 1


   1              		.cpu cortex-m4
   2              		.eabi_attribute 27, 1
   3              		.eabi_attribute 28, 1
   4              		.eabi_attribute 23, 1
   5              		.eabi_attribute 24, 1
   6              		.eabi_attribute 25, 1
   7              		.eabi_attribute 26, 1
   8              		.eabi_attribute 30, 4
   9              		.eabi_attribute 34, 1
  10              		.eabi_attribute 18, 4
  11              		.file	"os_sig.c"
  12              		.section	.text.sig_init,"ax",%progbits
  13              		.align	1
  14              		.global	sig_init
  15              		.syntax unified
  16              		.thumb
  17              		.thumb_func
  18              		.fpu fpv4-sp-d16
  19              		.type	sig_init, %function
  20              	sig_init:
  21              		@ args = 0, pretend = 0, frame = 0
  22              		@ frame_needed = 0, uses_anonymous_args = 0
  23              		@ link register save eliminated.
  24              		.syntax unified
  25              	@ 345 "CMSIS/include/cmsis_gcc.h" 1
  26 0000 EFF31083 		MRS r3, primask
  27              	@ 0 "" 2
  28              	@ 128 "CMSIS/include/cmsis_gcc.h" 1
  29 0004 72B6     		cpsid i
  30              	@ 0 "" 2
  31              		.thumb
  32              		.syntax unified
  33 0006 0022     		movs	r2, #0
  34 0008 01F00101 		and	r1, r1, #1
  35 000c 0260     		str	r2, [r0]	@ unaligned
  36 000e 4260     		str	r2, [r0, #4]	@ unaligned
  37 0010 8160     		str	r1, [r0, #8]
  38              		.syntax unified
  39              	@ 373 "CMSIS/include/cmsis_gcc.h" 1
  40 0012 83F31088 		MSR primask, r3
  41              	@ 0 "" 2
  42              		.thumb
  43              		.syntax unified
  44 0016 7047     		bx	lr
  45              		.size	sig_init, .-sig_init
  46              		.section	.text.sig_create,"ax",%progbits
  47              		.align	1
  48              		.global	sig_create
  49              		.syntax unified
  50              		.thumb
  51              		.thumb_func
  52              		.fpu fpv4-sp-d16
  53              		.type	sig_create, %function
  54              	sig_create:
  55              		@ args = 0, pretend = 0, frame = 0
  56              		@ frame_needed = 0, uses_anonymous_args = 0
  57 0000 70B5     		push	{r4, r5, r6, lr}
ARM GAS  C:\Users\SZYMAN~1.RAJ\AppData\Local\Temp\ccsj0iV2.s 			page 2


  58 0002 0646     		mov	r6, r0
  59              		.syntax unified
  60              	@ 345 "CMSIS/include/cmsis_gcc.h" 1
  61 0004 EFF31085 		MRS r5, primask
  62              	@ 0 "" 2
  63              	@ 128 "CMSIS/include/cmsis_gcc.h" 1
  64 0008 72B6     		cpsid i
  65              	@ 0 "" 2
  66              		.thumb
  67              		.syntax unified
  68 000a 0C20     		movs	r0, #12
  69 000c FFF7FEFF 		bl	core_sys_alloc
  70 0010 0446     		mov	r4, r0
  71 0012 10B1     		cbz	r0, .L3
  72 0014 3146     		mov	r1, r6
  73 0016 FFF7FEFF 		bl	sig_init
  74              	.L3:
  75              		.syntax unified
  76              	@ 373 "CMSIS/include/cmsis_gcc.h" 1
  77 001a 85F31088 		MSR primask, r5
  78              	@ 0 "" 2
  79              		.thumb
  80              		.syntax unified
  81 001e 2046     		mov	r0, r4
  82 0020 70BD     		pop	{r4, r5, r6, pc}
  83              		.size	sig_create, .-sig_create
  84              		.section	.text.sig_kill,"ax",%progbits
  85              		.align	1
  86              		.global	sig_kill
  87              		.syntax unified
  88              		.thumb
  89              		.thumb_func
  90              		.fpu fpv4-sp-d16
  91              		.type	sig_kill, %function
  92              	sig_kill:
  93              		@ args = 0, pretend = 0, frame = 0
  94              		@ frame_needed = 0, uses_anonymous_args = 0
  95 0000 10B5     		push	{r4, lr}
  96              		.syntax unified
  97              	@ 345 "CMSIS/include/cmsis_gcc.h" 1
  98 0002 EFF31084 		MRS r4, primask
  99              	@ 0 "" 2
 100              	@ 128 "CMSIS/include/cmsis_gcc.h" 1
 101 0006 72B6     		cpsid i
 102              	@ 0 "" 2
 103              		.thumb
 104              		.syntax unified
 105 0008 0022     		movs	r2, #0
 106 000a 4260     		str	r2, [r0, #4]
 107 000c 4FF0FF31 		mov	r1, #-1
 108 0010 FFF7FEFF 		bl	core_all_wakeup
 109              		.syntax unified
 110              	@ 373 "CMSIS/include/cmsis_gcc.h" 1
 111 0014 84F31088 		MSR primask, r4
 112              	@ 0 "" 2
 113              		.thumb
 114              		.syntax unified
ARM GAS  C:\Users\SZYMAN~1.RAJ\AppData\Local\Temp\ccsj0iV2.s 			page 3


 115 0018 10BD     		pop	{r4, pc}
 116              		.size	sig_kill, .-sig_kill
 117              		.section	.text.sig_waitUntil,"ax",%progbits
 118              		.align	1
 119              		.global	sig_waitUntil
 120              		.syntax unified
 121              		.thumb
 122              		.thumb_func
 123              		.fpu fpv4-sp-d16
 124              		.type	sig_waitUntil, %function
 125              	sig_waitUntil:
 126              		@ args = 0, pretend = 0, frame = 0
 127              		@ frame_needed = 0, uses_anonymous_args = 0
 128 0000 10B5     		push	{r4, lr}
 129              		.syntax unified
 130              	@ 345 "CMSIS/include/cmsis_gcc.h" 1
 131 0002 EFF31084 		MRS r4, primask
 132              	@ 0 "" 2
 133              	@ 128 "CMSIS/include/cmsis_gcc.h" 1
 134 0006 72B6     		cpsid i
 135              	@ 0 "" 2
 136              		.thumb
 137              		.syntax unified
 138 0008 4268     		ldr	r2, [r0, #4]
 139 000a 2AB1     		cbz	r2, .L9
 140 000c 8268     		ldr	r2, [r0, #8]
 141 000e 4260     		str	r2, [r0, #4]
 142 0010 0020     		movs	r0, #0
 143              	.L10:
 144              		.syntax unified
 145              	@ 373 "CMSIS/include/cmsis_gcc.h" 1
 146 0012 84F31088 		MSR primask, r4
 147              	@ 0 "" 2
 148              		.thumb
 149              		.syntax unified
 150 0016 10BD     		pop	{r4, pc}
 151              	.L9:
 152 0018 FFF7FEFF 		bl	core_tsk_waitUntil
 153 001c F9E7     		b	.L10
 154              		.size	sig_waitUntil, .-sig_waitUntil
 155              		.section	.text.sig_waitFor,"ax",%progbits
 156              		.align	1
 157              		.global	sig_waitFor
 158              		.syntax unified
 159              		.thumb
 160              		.thumb_func
 161              		.fpu fpv4-sp-d16
 162              		.type	sig_waitFor, %function
 163              	sig_waitFor:
 164              		@ args = 0, pretend = 0, frame = 0
 165              		@ frame_needed = 0, uses_anonymous_args = 0
 166 0000 10B5     		push	{r4, lr}
 167              		.syntax unified
 168              	@ 345 "CMSIS/include/cmsis_gcc.h" 1
 169 0002 EFF31084 		MRS r4, primask
 170              	@ 0 "" 2
 171              	@ 128 "CMSIS/include/cmsis_gcc.h" 1
ARM GAS  C:\Users\SZYMAN~1.RAJ\AppData\Local\Temp\ccsj0iV2.s 			page 4


 172 0006 72B6     		cpsid i
 173              	@ 0 "" 2
 174              		.thumb
 175              		.syntax unified
 176 0008 4268     		ldr	r2, [r0, #4]
 177 000a 2AB1     		cbz	r2, .L12
 178 000c 8268     		ldr	r2, [r0, #8]
 179 000e 4260     		str	r2, [r0, #4]
 180 0010 0020     		movs	r0, #0
 181              	.L13:
 182              		.syntax unified
 183              	@ 373 "CMSIS/include/cmsis_gcc.h" 1
 184 0012 84F31088 		MSR primask, r4
 185              	@ 0 "" 2
 186              		.thumb
 187              		.syntax unified
 188 0016 10BD     		pop	{r4, pc}
 189              	.L12:
 190 0018 FFF7FEFF 		bl	core_tsk_waitFor
 191 001c F9E7     		b	.L13
 192              		.size	sig_waitFor, .-sig_waitFor
 193              		.section	.text.sig_give,"ax",%progbits
 194              		.align	1
 195              		.global	sig_give
 196              		.syntax unified
 197              		.thumb
 198              		.thumb_func
 199              		.fpu fpv4-sp-d16
 200              		.type	sig_give, %function
 201              	sig_give:
 202              		@ args = 0, pretend = 0, frame = 0
 203              		@ frame_needed = 0, uses_anonymous_args = 0
 204 0000 70B5     		push	{r4, r5, r6, lr}
 205 0002 0446     		mov	r4, r0
 206              		.syntax unified
 207              	@ 345 "CMSIS/include/cmsis_gcc.h" 1
 208 0004 EFF31086 		MRS r6, primask
 209              	@ 0 "" 2
 210              	@ 128 "CMSIS/include/cmsis_gcc.h" 1
 211 0008 72B6     		cpsid i
 212              	@ 0 "" 2
 213              		.thumb
 214              		.syntax unified
 215 000a 8568     		ldr	r5, [r0, #8]
 216 000c 0123     		movs	r3, #1
 217 000e 4360     		str	r3, [r0, #4]
 218 0010 3DB9     		cbnz	r5, .L15
 219 0012 2946     		mov	r1, r5
 220 0014 FFF7FEFF 		bl	core_one_wakeup
 221 0018 00B1     		cbz	r0, .L16
 222 001a 6560     		str	r5, [r4, #4]
 223              	.L16:
 224              		.syntax unified
 225              	@ 373 "CMSIS/include/cmsis_gcc.h" 1
 226 001c 86F31088 		MSR primask, r6
 227              	@ 0 "" 2
 228              		.thumb
ARM GAS  C:\Users\SZYMAN~1.RAJ\AppData\Local\Temp\ccsj0iV2.s 			page 5


 229              		.syntax unified
 230 0020 70BD     		pop	{r4, r5, r6, pc}
 231              	.L15:
 232 0022 0021     		movs	r1, #0
 233 0024 FFF7FEFF 		bl	core_all_wakeup
 234 0028 F8E7     		b	.L16
 235              		.size	sig_give, .-sig_give
 236              		.section	.text.sig_clear,"ax",%progbits
 237              		.align	1
 238              		.global	sig_clear
 239              		.syntax unified
 240              		.thumb
 241              		.thumb_func
 242              		.fpu fpv4-sp-d16
 243              		.type	sig_clear, %function
 244              	sig_clear:
 245              		@ args = 0, pretend = 0, frame = 0
 246              		@ frame_needed = 0, uses_anonymous_args = 0
 247              		@ link register save eliminated.
 248 0000 0023     		movs	r3, #0
 249 0002 4360     		str	r3, [r0, #4]
 250 0004 7047     		bx	lr
 251              		.size	sig_clear, .-sig_clear
 252              		.ident	"GCC: (GNU Tools for ARM Embedded Processors) 6.2.1 20161205 (release) [ARM/embedded-6-bran
ARM GAS  C:\Users\SZYMAN~1.RAJ\AppData\Local\Temp\ccsj0iV2.s 			page 6

