ARM GAS  C:\Users\SZYMAN~1.RAJ\AppData\Local\Temp\cc2XGfPd.s 			page 1


   1              		.cpu cortex-m4
   2              		.eabi_attribute 27, 1
   3              		.eabi_attribute 28, 1
   4              		.eabi_attribute 23, 1
   5              		.eabi_attribute 24, 1
   6              		.eabi_attribute 25, 1
   7              		.eabi_attribute 26, 1
   8              		.eabi_attribute 30, 4
   9              		.eabi_attribute 34, 1
  10              		.eabi_attribute 18, 4
  11              		.file	"os_tmr.c"
  12              		.section	.text.priv_tmr_start,"ax",%progbits
  13              		.align	1
  14              		.syntax unified
  15              		.thumb
  16              		.thumb_func
  17              		.fpu fpv4-sp-d16
  18              		.type	priv_tmr_start, %function
  19              	priv_tmr_start:
  20              		@ args = 0, pretend = 0, frame = 0
  21              		@ frame_needed = 0, uses_anonymous_args = 0
  22 0000 4368     		ldr	r3, [r0, #4]
  23 0002 10B5     		push	{r4, lr}
  24 0004 0446     		mov	r4, r0
  25 0006 0BB1     		cbz	r3, .L2
  26 0008 FFF7FEFF 		bl	core_tmr_remove
  27              	.L2:
  28 000c 2046     		mov	r0, r4
  29 000e 0321     		movs	r1, #3
  30 0010 BDE81040 		pop	{r4, lr}
  31 0014 FFF7FEBF 		b	core_tmr_insert
  32              		.size	priv_tmr_start, .-priv_tmr_start
  33              		.section	.text.tmr_init,"ax",%progbits
  34              		.align	1
  35              		.global	tmr_init
  36              		.syntax unified
  37              		.thumb
  38              		.thumb_func
  39              		.fpu fpv4-sp-d16
  40              		.type	tmr_init, %function
  41              	tmr_init:
  42              		@ args = 0, pretend = 0, frame = 0
  43              		@ frame_needed = 0, uses_anonymous_args = 0
  44 0000 70B5     		push	{r4, r5, r6, lr}
  45 0002 0546     		mov	r5, r0
  46 0004 0E46     		mov	r6, r1
  47              		.syntax unified
  48              	@ 345 "CMSIS/include/cmsis_gcc.h" 1
  49 0006 EFF31084 		MRS r4, primask
  50              	@ 0 "" 2
  51              	@ 128 "CMSIS/include/cmsis_gcc.h" 1
  52 000a 72B6     		cpsid i
  53              	@ 0 "" 2
  54              		.thumb
  55              		.syntax unified
  56 000c 2022     		movs	r2, #32
  57 000e 0021     		movs	r1, #0
ARM GAS  C:\Users\SZYMAN~1.RAJ\AppData\Local\Temp\cc2XGfPd.s 			page 2


  58 0010 FFF7FEFF 		bl	memset
  59 0014 2E61     		str	r6, [r5, #16]
  60              		.syntax unified
  61              	@ 373 "CMSIS/include/cmsis_gcc.h" 1
  62 0016 84F31088 		MSR primask, r4
  63              	@ 0 "" 2
  64              		.thumb
  65              		.syntax unified
  66 001a 70BD     		pop	{r4, r5, r6, pc}
  67              		.size	tmr_init, .-tmr_init
  68              		.section	.text.tmr_create,"ax",%progbits
  69              		.align	1
  70              		.global	tmr_create
  71              		.syntax unified
  72              		.thumb
  73              		.thumb_func
  74              		.fpu fpv4-sp-d16
  75              		.type	tmr_create, %function
  76              	tmr_create:
  77              		@ args = 0, pretend = 0, frame = 0
  78              		@ frame_needed = 0, uses_anonymous_args = 0
  79 0000 70B5     		push	{r4, r5, r6, lr}
  80 0002 0646     		mov	r6, r0
  81              		.syntax unified
  82              	@ 345 "CMSIS/include/cmsis_gcc.h" 1
  83 0004 EFF31085 		MRS r5, primask
  84              	@ 0 "" 2
  85              	@ 128 "CMSIS/include/cmsis_gcc.h" 1
  86 0008 72B6     		cpsid i
  87              	@ 0 "" 2
  88              		.thumb
  89              		.syntax unified
  90 000a 2020     		movs	r0, #32
  91 000c FFF7FEFF 		bl	core_sys_alloc
  92 0010 0446     		mov	r4, r0
  93 0012 10B1     		cbz	r0, .L8
  94 0014 3146     		mov	r1, r6
  95 0016 FFF7FEFF 		bl	tmr_init
  96              	.L8:
  97              		.syntax unified
  98              	@ 373 "CMSIS/include/cmsis_gcc.h" 1
  99 001a 85F31088 		MSR primask, r5
 100              	@ 0 "" 2
 101              		.thumb
 102              		.syntax unified
 103 001e 2046     		mov	r0, r4
 104 0020 70BD     		pop	{r4, r5, r6, pc}
 105              		.size	tmr_create, .-tmr_create
 106              		.section	.text.tmr_kill,"ax",%progbits
 107              		.align	1
 108              		.global	tmr_kill
 109              		.syntax unified
 110              		.thumb
 111              		.thumb_func
 112              		.fpu fpv4-sp-d16
 113              		.type	tmr_kill, %function
 114              	tmr_kill:
ARM GAS  C:\Users\SZYMAN~1.RAJ\AppData\Local\Temp\cc2XGfPd.s 			page 3


 115              		@ args = 0, pretend = 0, frame = 0
 116              		@ frame_needed = 0, uses_anonymous_args = 0
 117 0000 38B5     		push	{r3, r4, r5, lr}
 118 0002 0446     		mov	r4, r0
 119              		.syntax unified
 120              	@ 345 "CMSIS/include/cmsis_gcc.h" 1
 121 0004 EFF31085 		MRS r5, primask
 122              	@ 0 "" 2
 123              	@ 128 "CMSIS/include/cmsis_gcc.h" 1
 124 0008 72B6     		cpsid i
 125              	@ 0 "" 2
 126              		.thumb
 127              		.syntax unified
 128 000a 4368     		ldr	r3, [r0, #4]
 129 000c 33B1     		cbz	r3, .L13
 130 000e 4FF0FF31 		mov	r1, #-1
 131 0012 FFF7FEFF 		bl	core_all_wakeup
 132 0016 2046     		mov	r0, r4
 133 0018 FFF7FEFF 		bl	core_tmr_remove
 134              	.L13:
 135              		.syntax unified
 136              	@ 373 "CMSIS/include/cmsis_gcc.h" 1
 137 001c 85F31088 		MSR primask, r5
 138              	@ 0 "" 2
 139              		.thumb
 140              		.syntax unified
 141 0020 38BD     		pop	{r3, r4, r5, pc}
 142              		.size	tmr_kill, .-tmr_kill
 143              		.section	.text.tmr_startUntil,"ax",%progbits
 144              		.align	1
 145              		.global	tmr_startUntil
 146              		.syntax unified
 147              		.thumb
 148              		.thumb_func
 149              		.fpu fpv4-sp-d16
 150              		.type	tmr_startUntil, %function
 151              	tmr_startUntil:
 152              		@ args = 0, pretend = 0, frame = 0
 153              		@ frame_needed = 0, uses_anonymous_args = 0
 154 0000 10B5     		push	{r4, lr}
 155              		.syntax unified
 156              	@ 345 "CMSIS/include/cmsis_gcc.h" 1
 157 0002 EFF31084 		MRS r4, primask
 158              	@ 0 "" 2
 159              	@ 128 "CMSIS/include/cmsis_gcc.h" 1
 160 0006 72B6     		cpsid i
 161              	@ 0 "" 2
 162              		.thumb
 163              		.syntax unified
 164 0008 4FF08042 		mov	r2, #1073741824
 165 000c 526A     		ldr	r2, [r2, #36]
 166 000e 4261     		str	r2, [r0, #20]
 167 0010 891A     		subs	r1, r1, r2
 168 0012 0022     		movs	r2, #0
 169 0014 8161     		str	r1, [r0, #24]
 170 0016 C261     		str	r2, [r0, #28]
 171 0018 FFF7FEFF 		bl	priv_tmr_start
ARM GAS  C:\Users\SZYMAN~1.RAJ\AppData\Local\Temp\cc2XGfPd.s 			page 4


 172              		.syntax unified
 173              	@ 373 "CMSIS/include/cmsis_gcc.h" 1
 174 001c 84F31088 		MSR primask, r4
 175              	@ 0 "" 2
 176              		.thumb
 177              		.syntax unified
 178 0020 10BD     		pop	{r4, pc}
 179              		.size	tmr_startUntil, .-tmr_startUntil
 180              		.section	.text.tmr_start,"ax",%progbits
 181              		.align	1
 182              		.global	tmr_start
 183              		.syntax unified
 184              		.thumb
 185              		.thumb_func
 186              		.fpu fpv4-sp-d16
 187              		.type	tmr_start, %function
 188              	tmr_start:
 189              		@ args = 0, pretend = 0, frame = 0
 190              		@ frame_needed = 0, uses_anonymous_args = 0
 191 0000 38B5     		push	{r3, r4, r5, lr}
 192              		.syntax unified
 193              	@ 345 "CMSIS/include/cmsis_gcc.h" 1
 194 0002 EFF31084 		MRS r4, primask
 195              	@ 0 "" 2
 196              	@ 128 "CMSIS/include/cmsis_gcc.h" 1
 197 0006 72B6     		cpsid i
 198              	@ 0 "" 2
 199              		.thumb
 200              		.syntax unified
 201 0008 4FF08045 		mov	r5, #1073741824
 202 000c 6D6A     		ldr	r5, [r5, #36]
 203 000e 4561     		str	r5, [r0, #20]
 204 0010 8161     		str	r1, [r0, #24]
 205 0012 C261     		str	r2, [r0, #28]
 206 0014 FFF7FEFF 		bl	priv_tmr_start
 207              		.syntax unified
 208              	@ 373 "CMSIS/include/cmsis_gcc.h" 1
 209 0018 84F31088 		MSR primask, r4
 210              	@ 0 "" 2
 211              		.thumb
 212              		.syntax unified
 213 001c 38BD     		pop	{r3, r4, r5, pc}
 214              		.size	tmr_start, .-tmr_start
 215              		.section	.text.tmr_startFrom,"ax",%progbits
 216              		.align	1
 217              		.global	tmr_startFrom
 218              		.syntax unified
 219              		.thumb
 220              		.thumb_func
 221              		.fpu fpv4-sp-d16
 222              		.type	tmr_startFrom, %function
 223              	tmr_startFrom:
 224              		@ args = 0, pretend = 0, frame = 0
 225              		@ frame_needed = 0, uses_anonymous_args = 0
 226 0000 38B5     		push	{r3, r4, r5, lr}
 227              		.syntax unified
 228              	@ 345 "CMSIS/include/cmsis_gcc.h" 1
ARM GAS  C:\Users\SZYMAN~1.RAJ\AppData\Local\Temp\cc2XGfPd.s 			page 5


 229 0002 EFF31085 		MRS r5, primask
 230              	@ 0 "" 2
 231              	@ 128 "CMSIS/include/cmsis_gcc.h" 1
 232 0006 72B6     		cpsid i
 233              	@ 0 "" 2
 234              		.thumb
 235              		.syntax unified
 236 0008 0361     		str	r3, [r0, #16]
 237 000a 4FF08043 		mov	r3, #1073741824
 238 000e 5B6A     		ldr	r3, [r3, #36]
 239 0010 4361     		str	r3, [r0, #20]
 240 0012 8161     		str	r1, [r0, #24]
 241 0014 C261     		str	r2, [r0, #28]
 242 0016 FFF7FEFF 		bl	priv_tmr_start
 243              		.syntax unified
 244              	@ 373 "CMSIS/include/cmsis_gcc.h" 1
 245 001a 85F31088 		MSR primask, r5
 246              	@ 0 "" 2
 247              		.thumb
 248              		.syntax unified
 249 001e 38BD     		pop	{r3, r4, r5, pc}
 250              		.size	tmr_startFrom, .-tmr_startFrom
 251              		.section	.text.tmr_waitUntil,"ax",%progbits
 252              		.align	1
 253              		.global	tmr_waitUntil
 254              		.syntax unified
 255              		.thumb
 256              		.thumb_func
 257              		.fpu fpv4-sp-d16
 258              		.type	tmr_waitUntil, %function
 259              	tmr_waitUntil:
 260              		@ args = 0, pretend = 0, frame = 0
 261              		@ frame_needed = 0, uses_anonymous_args = 0
 262 0000 10B5     		push	{r4, lr}
 263              		.syntax unified
 264              	@ 345 "CMSIS/include/cmsis_gcc.h" 1
 265 0002 EFF31084 		MRS r4, primask
 266              	@ 0 "" 2
 267              	@ 128 "CMSIS/include/cmsis_gcc.h" 1
 268 0006 72B6     		cpsid i
 269              	@ 0 "" 2
 270              		.thumb
 271              		.syntax unified
 272 0008 4368     		ldr	r3, [r0, #4]
 273 000a 13B1     		cbz	r3, .L21
 274 000c FFF7FEFF 		bl	core_tsk_waitUntil
 275 0010 0346     		mov	r3, r0
 276              	.L21:
 277              		.syntax unified
 278              	@ 373 "CMSIS/include/cmsis_gcc.h" 1
 279 0012 84F31088 		MSR primask, r4
 280              	@ 0 "" 2
 281              		.thumb
 282              		.syntax unified
 283 0016 1846     		mov	r0, r3
 284 0018 10BD     		pop	{r4, pc}
 285              		.size	tmr_waitUntil, .-tmr_waitUntil
ARM GAS  C:\Users\SZYMAN~1.RAJ\AppData\Local\Temp\cc2XGfPd.s 			page 6


 286              		.section	.text.tmr_waitFor,"ax",%progbits
 287              		.align	1
 288              		.global	tmr_waitFor
 289              		.syntax unified
 290              		.thumb
 291              		.thumb_func
 292              		.fpu fpv4-sp-d16
 293              		.type	tmr_waitFor, %function
 294              	tmr_waitFor:
 295              		@ args = 0, pretend = 0, frame = 0
 296              		@ frame_needed = 0, uses_anonymous_args = 0
 297 0000 10B5     		push	{r4, lr}
 298              		.syntax unified
 299              	@ 345 "CMSIS/include/cmsis_gcc.h" 1
 300 0002 EFF31084 		MRS r4, primask
 301              	@ 0 "" 2
 302              	@ 128 "CMSIS/include/cmsis_gcc.h" 1
 303 0006 72B6     		cpsid i
 304              	@ 0 "" 2
 305              		.thumb
 306              		.syntax unified
 307 0008 4368     		ldr	r3, [r0, #4]
 308 000a 13B1     		cbz	r3, .L26
 309 000c FFF7FEFF 		bl	core_tsk_waitFor
 310 0010 0346     		mov	r3, r0
 311              	.L26:
 312              		.syntax unified
 313              	@ 373 "CMSIS/include/cmsis_gcc.h" 1
 314 0012 84F31088 		MSR primask, r4
 315              	@ 0 "" 2
 316              		.thumb
 317              		.syntax unified
 318 0016 1846     		mov	r0, r3
 319 0018 10BD     		pop	{r4, pc}
 320              		.size	tmr_waitFor, .-tmr_waitFor
 321              		.ident	"GCC: (GNU Tools for ARM Embedded Processors) 6.2.1 20161205 (release) [ARM/embedded-6-bran
ARM GAS  C:\Users\SZYMAN~1.RAJ\AppData\Local\Temp\cc2XGfPd.s 			page 7

