ARM GAS  C:\Users\SZYMAN~1.RAJ\AppData\Local\Temp\ccPKO3zh.s 			page 1


   1              		.cpu cortex-m4
   2              		.eabi_attribute 27, 1
   3              		.eabi_attribute 28, 1
   4              		.eabi_attribute 23, 1
   5              		.eabi_attribute 24, 1
   6              		.eabi_attribute 25, 1
   7              		.eabi_attribute 26, 1
   8              		.eabi_attribute 30, 4
   9              		.eabi_attribute 34, 1
  10              		.eabi_attribute 18, 4
  11              		.file	"oslibc.c"
  12              		.section	.text.__malloc_lock,"ax",%progbits
  13              		.align	1
  14              		.global	__malloc_lock
  15              		.syntax unified
  16              		.thumb
  17              		.thumb_func
  18              		.fpu fpv4-sp-d16
  19              		.type	__malloc_lock, %function
  20              	__malloc_lock:
  21              		@ args = 0, pretend = 0, frame = 0
  22              		@ frame_needed = 0, uses_anonymous_args = 0
  23              		@ link register save eliminated.
  24              		.syntax unified
  25              	@ 345 "CMSIS/include/cmsis_gcc.h" 1
  26 0000 EFF31081 		MRS r1, primask
  27              	@ 0 "" 2
  28              	@ 128 "CMSIS/include/cmsis_gcc.h" 1
  29 0004 72B6     		cpsid i
  30              	@ 0 "" 2
  31              		.thumb
  32              		.syntax unified
  33 0006 044A     		ldr	r2, .L3
  34 0008 1368     		ldr	r3, [r2]
  35 000a 581C     		adds	r0, r3, #1
  36 000c 1060     		str	r0, [r2]
  37 000e 0BB9     		cbnz	r3, .L1
  38 0010 024B     		ldr	r3, .L3+4
  39 0012 1960     		str	r1, [r3]
  40              	.L1:
  41 0014 7047     		bx	lr
  42              	.L4:
  43 0016 00BF     		.align	2
  44              	.L3:
  45 0018 00000000 		.word	.LANCHOR0
  46 001c 00000000 		.word	.LANCHOR1
  47              		.size	__malloc_lock, .-__malloc_lock
  48              		.section	.text.__malloc_unlock,"ax",%progbits
  49              		.align	1
  50              		.global	__malloc_unlock
  51              		.syntax unified
  52              		.thumb
  53              		.thumb_func
  54              		.fpu fpv4-sp-d16
  55              		.type	__malloc_unlock, %function
  56              	__malloc_unlock:
  57              		@ args = 0, pretend = 0, frame = 0
ARM GAS  C:\Users\SZYMAN~1.RAJ\AppData\Local\Temp\ccPKO3zh.s 			page 2


  58              		@ frame_needed = 0, uses_anonymous_args = 0
  59              		@ link register save eliminated.
  60 0000 044A     		ldr	r2, .L7
  61 0002 1368     		ldr	r3, [r2]
  62 0004 013B     		subs	r3, r3, #1
  63 0006 1360     		str	r3, [r2]
  64 0008 1BB9     		cbnz	r3, .L5
  65 000a 034B     		ldr	r3, .L7+4
  66 000c 1B68     		ldr	r3, [r3]
  67              		.syntax unified
  68              	@ 373 "CMSIS/include/cmsis_gcc.h" 1
  69 000e 83F31088 		MSR primask, r3
  70              	@ 0 "" 2
  71              		.thumb
  72              		.syntax unified
  73              	.L5:
  74 0012 7047     		bx	lr
  75              	.L8:
  76              		.align	2
  77              	.L7:
  78 0014 00000000 		.word	.LANCHOR0
  79 0018 00000000 		.word	.LANCHOR1
  80              		.size	__malloc_unlock, .-__malloc_unlock
  81              		.section	.text._sbrk_r,"ax",%progbits
  82              		.align	1
  83              		.global	_sbrk_r
  84              		.syntax unified
  85              		.thumb
  86              		.thumb_func
  87              		.fpu fpv4-sp-d16
  88              		.type	_sbrk_r, %function
  89              	_sbrk_r:
  90              		@ args = 0, pretend = 0, frame = 0
  91              		@ frame_needed = 0, uses_anonymous_args = 0
  92 0000 08B5     		push	{r3, lr}
  93 0002 074B     		ldr	r3, .L12
  94 0004 074A     		ldr	r2, .L12+4
  95 0006 1868     		ldr	r0, [r3]
  96 0008 0144     		add	r1, r1, r0
  97 000a 9142     		cmp	r1, r2
  98 000c 01D8     		bhi	.L10
  99 000e 1960     		str	r1, [r3]
 100 0010 08BD     		pop	{r3, pc}
 101              	.L10:
 102 0012 FFF7FEFF 		bl	__errno
 103 0016 0C23     		movs	r3, #12
 104 0018 0360     		str	r3, [r0]
 105 001a 4FF0FF30 		mov	r0, #-1
 106 001e 08BD     		pop	{r3, pc}
 107              	.L13:
 108              		.align	2
 109              	.L12:
 110 0020 00000000 		.word	.LANCHOR2
 111 0024 00000000 		.word	__heap_end
 112              		.size	_sbrk_r, .-_sbrk_r
 113              		.section	.text.__enosys,"ax",%progbits
 114              		.align	1
ARM GAS  C:\Users\SZYMAN~1.RAJ\AppData\Local\Temp\ccPKO3zh.s 			page 3


 115              		.syntax unified
 116              		.thumb
 117              		.thumb_func
 118              		.fpu fpv4-sp-d16
 119              		.type	__enosys, %function
 120              	__enosys:
 121              		@ args = 0, pretend = 0, frame = 0
 122              		@ frame_needed = 0, uses_anonymous_args = 0
 123 0000 08B5     		push	{r3, lr}
 124 0002 FFF7FEFF 		bl	__errno
 125 0006 5823     		movs	r3, #88
 126 0008 0360     		str	r3, [r0]
 127 000a 4FF0FF30 		mov	r0, #-1
 128 000e 08BD     		pop	{r3, pc}
 129              		.size	__enosys, .-__enosys
 130              		.weak	_kill_r
 131              		.thumb_set _kill_r,__enosys
 132              		.weak	_getpid_r
 133              		.thumb_set _getpid_r,__enosys
 134              		.weak	_fstat_r
 135              		.thumb_set _fstat_r,__enosys
 136              		.weak	_isatty_r
 137              		.thumb_set _isatty_r,__enosys
 138              		.weak	_write_r
 139              		.thumb_set _write_r,__enosys
 140              		.weak	_read_r
 141              		.thumb_set _read_r,__enosys
 142              		.weak	_lseek_r
 143              		.thumb_set _lseek_r,__enosys
 144              		.weak	_close_r
 145              		.thumb_set _close_r,__enosys
 146              		.weak	_open_r
 147              		.thumb_set _open_r,__enosys
 148              		.section	.text.__assert_func,"ax",%progbits
 149              		.align	1
 150              		.global	__assert_func
 151              		.syntax unified
 152              		.thumb
 153              		.thumb_func
 154              		.fpu fpv4-sp-d16
 155              		.type	__assert_func, %function
 156              	__assert_func:
 157              		@ Volatile: function does not return.
 158              		@ args = 0, pretend = 0, frame = 0
 159              		@ frame_needed = 0, uses_anonymous_args = 0
 160 0000 07B5     		push	{r0, r1, r2, lr}
 161 0002 0092     		str	r2, [sp]
 162 0004 0A46     		mov	r2, r1
 163 0006 0146     		mov	r1, r0
 164 0008 0248     		ldr	r0, .L16
 165 000a FFF7FEFF 		bl	printf
 166 000e FFF7FEFF 		bl	abort
 167              	.L17:
 168 0012 00BF     		.align	2
 169              	.L16:
 170 0014 00000000 		.word	.LC0
 171              		.size	__assert_func, .-__assert_func
ARM GAS  C:\Users\SZYMAN~1.RAJ\AppData\Local\Temp\ccPKO3zh.s 			page 4


 172              		.section	.bss.CNT,"aw",%nobits
 173              		.align	2
 174              		.set	.LANCHOR0,. + 0
 175              		.type	CNT, %object
 176              		.size	CNT, 4
 177              	CNT:
 178 0000 00000000 		.space	4
 179              		.section	.bss.LCK,"aw",%nobits
 180              		.align	2
 181              		.set	.LANCHOR1,. + 0
 182              		.type	LCK, %object
 183              		.size	LCK, 4
 184              	LCK:
 185 0000 00000000 		.space	4
 186              		.section	.data.heap.8438,"aw",%progbits
 187              		.align	2
 188              		.set	.LANCHOR2,. + 0
 189              		.type	heap.8438, %object
 190              		.size	heap.8438, 4
 191              	heap.8438:
 192 0000 00000000 		.word	__heap_start
 193              		.section	.rodata.__assert_func.str1.1,"aMS",%progbits,1
 194              	.LC0:
 195 0000 0A617373 		.ascii	"\012assert error at %s:%d:%s:%s\012\000"
 195      65727420 
 195      6572726F 
 195      72206174 
 195      2025733A 
 196              		.ident	"GCC: (GNU Tools for ARM Embedded Processors) 6.2.1 20161205 (release) [ARM/embedded-6-bran
ARM GAS  C:\Users\SZYMAN~1.RAJ\AppData\Local\Temp\ccPKO3zh.s 			page 5

