ARM GAS  C:\Users\SZYMAN~1.RAJ\AppData\Local\Temp\ccpuCrta.s 			page 1


   1              		.cpu cortex-m4
   2              		.eabi_attribute 27, 1
   3              		.eabi_attribute 28, 1
   4              		.eabi_attribute 23, 1
   5              		.eabi_attribute 24, 1
   6              		.eabi_attribute 25, 1
   7              		.eabi_attribute 26, 1
   8              		.eabi_attribute 30, 4
   9              		.eabi_attribute 34, 1
  10              		.eabi_attribute 18, 4
  11              		.file	"main.cpp"
  12              		.section	.text.startup.__stretch,"ax",%progbits
  13              		.align	1
  14              		.syntax unified
  15              		.thumb
  16              		.thumb_func
  17              		.fpu fpv4-sp-d16
  18              		.type	__stretch, %function
  19              	__stretch:
  20              		@ args = 0, pretend = 0, frame = 0
  21              		@ frame_needed = 0, uses_anonymous_args = 0
  22              		@ link register save eliminated.
  23 0000 00F00403 		and	r3, r0, #4
  24 0004 00F00202 		and	r2, r0, #2
  25 0008 9B00     		lsls	r3, r3, #2
  26 000a 43EA4203 		orr	r3, r3, r2, lsl #1
  27 000e 00F00102 		and	r2, r0, #1
  28 0012 1343     		orrs	r3, r3, r2
  29 0014 00F00802 		and	r2, r0, #8
  30 0018 43EAC203 		orr	r3, r3, r2, lsl #3
  31 001c 00F01002 		and	r2, r0, #16
  32 0020 43EA0213 		orr	r3, r3, r2, lsl #4
  33 0024 00F02002 		and	r2, r0, #32
  34 0028 43EA4213 		orr	r3, r3, r2, lsl #5
  35 002c 00F04002 		and	r2, r0, #64
  36 0030 43EA8213 		orr	r3, r3, r2, lsl #6
  37 0034 00F08002 		and	r2, r0, #128
  38 0038 43EAC213 		orr	r3, r3, r2, lsl #7
  39 003c 00F48072 		and	r2, r0, #256
  40 0040 43EA0223 		orr	r3, r3, r2, lsl #8
  41 0044 00F40072 		and	r2, r0, #512
  42 0048 43EA4223 		orr	r3, r3, r2, lsl #9
  43 004c 00F48062 		and	r2, r0, #1024
  44 0050 43EA8223 		orr	r3, r3, r2, lsl #10
  45 0054 00F40062 		and	r2, r0, #2048
  46 0058 43EAC223 		orr	r3, r3, r2, lsl #11
  47 005c 00F48052 		and	r2, r0, #4096
  48 0060 43EA0233 		orr	r3, r3, r2, lsl #12
  49 0064 00F40052 		and	r2, r0, #8192
  50 0068 43EA4233 		orr	r3, r3, r2, lsl #13
  51 006c 00F48042 		and	r2, r0, #16384
  52 0070 43EA8233 		orr	r3, r3, r2, lsl #14
  53 0074 00F40040 		and	r0, r0, #32768
  54 0078 43EAC030 		orr	r0, r3, r0, lsl #15
  55 007c 7047     		bx	lr
  56              		.size	__stretch, .-__stretch
  57              		.section	.text._ZN9startTaskD2Ev,"axG",%progbits,_ZN9startTaskD5Ev,comdat
ARM GAS  C:\Users\SZYMAN~1.RAJ\AppData\Local\Temp\ccpuCrta.s 			page 2


  58              		.align	1
  59              		.weak	_ZN9startTaskD2Ev
  60              		.syntax unified
  61              		.thumb
  62              		.thumb_func
  63              		.fpu fpv4-sp-d16
  64              		.type	_ZN9startTaskD2Ev, %function
  65              	_ZN9startTaskD2Ev:
  66              		@ args = 0, pretend = 0, frame = 0
  67              		@ frame_needed = 0, uses_anonymous_args = 0
  68              		@ link register save eliminated.
  69 0000 7047     		bx	lr
  70              		.size	_ZN9startTaskD2Ev, .-_ZN9startTaskD2Ev
  71              		.weak	_ZN9startTaskD1Ev
  72              		.thumb_set _ZN9startTaskD1Ev,_ZN9startTaskD2Ev
  73              		.section	.text._ZN9ThisTimer7flipISREPFvvE,"ax",%progbits
  74              		.align	1
  75              		.global	_ZN9ThisTimer7flipISREPFvvE
  76              		.syntax unified
  77              		.thumb
  78              		.thumb_func
  79              		.fpu fpv4-sp-d16
  80              		.type	_ZN9ThisTimer7flipISREPFvvE, %function
  81              	_ZN9ThisTimer7flipISREPFvvE:
  82              		@ args = 0, pretend = 0, frame = 0
  83              		@ frame_needed = 0, uses_anonymous_args = 0
  84              		@ link register save eliminated.
  85 0000 014B     		ldr	r3, .L4
  86 0002 DB68     		ldr	r3, [r3, #12]
  87 0004 1861     		str	r0, [r3, #16]
  88 0006 7047     		bx	lr
  89              	.L5:
  90              		.align	2
  91              	.L4:
  92 0008 00000000 		.word	WAIT
  93              		.size	_ZN9ThisTimer7flipISREPFvvE, .-_ZN9ThisTimer7flipISREPFvvE
  94              		.section	.text._ZN9ThisTimer8delayISREj,"ax",%progbits
  95              		.align	1
  96              		.global	_ZN9ThisTimer8delayISREj
  97              		.syntax unified
  98              		.thumb
  99              		.thumb_func
 100              		.fpu fpv4-sp-d16
 101              		.type	_ZN9ThisTimer8delayISREj, %function
 102              	_ZN9ThisTimer8delayISREj:
 103              		@ args = 0, pretend = 0, frame = 0
 104              		@ frame_needed = 0, uses_anonymous_args = 0
 105              		@ link register save eliminated.
 106 0000 014B     		ldr	r3, .L7
 107 0002 DB68     		ldr	r3, [r3, #12]
 108 0004 9861     		str	r0, [r3, #24]
 109 0006 7047     		bx	lr
 110              	.L8:
 111              		.align	2
 112              	.L7:
 113 0008 00000000 		.word	WAIT
 114              		.size	_ZN9ThisTimer8delayISREj, .-_ZN9ThisTimer8delayISREj
ARM GAS  C:\Users\SZYMAN~1.RAJ\AppData\Local\Temp\ccpuCrta.s 			page 3


 115              		.section	.text._ZN8ThisTask4passEv,"ax",%progbits
 116              		.align	1
 117              		.global	_ZN8ThisTask4passEv
 118              		.syntax unified
 119              		.thumb
 120              		.thumb_func
 121              		.fpu fpv4-sp-d16
 122              		.type	_ZN8ThisTask4passEv, %function
 123              	_ZN8ThisTask4passEv:
 124              		@ args = 0, pretend = 0, frame = 0
 125              		@ frame_needed = 0, uses_anonymous_args = 0
 126              		@ link register save eliminated.
 127 0000 FFF7FEBF 		b	tsk_yield
 128              		.size	_ZN8ThisTask4passEv, .-_ZN8ThisTask4passEv
 129              		.section	.text._ZN8ThisTask5yieldEv,"ax",%progbits
 130              		.align	1
 131              		.global	_ZN8ThisTask5yieldEv
 132              		.syntax unified
 133              		.thumb
 134              		.thumb_func
 135              		.fpu fpv4-sp-d16
 136              		.type	_ZN8ThisTask5yieldEv, %function
 137              	_ZN8ThisTask5yieldEv:
 138              		@ args = 0, pretend = 0, frame = 0
 139              		@ frame_needed = 0, uses_anonymous_args = 0
 140              		@ link register save eliminated.
 141 0000 FFF7FEBF 		b	tsk_yield
 142              		.size	_ZN8ThisTask5yieldEv, .-_ZN8ThisTask5yieldEv
 143              		.section	.text._ZN8ThisTask4flipEPFvvE,"ax",%progbits
 144              		.align	1
 145              		.global	_ZN8ThisTask4flipEPFvvE
 146              		.syntax unified
 147              		.thumb
 148              		.thumb_func
 149              		.fpu fpv4-sp-d16
 150              		.type	_ZN8ThisTask4flipEPFvvE, %function
 151              	_ZN8ThisTask4flipEPFvvE:
 152              		@ Volatile: function does not return.
 153              		@ args = 0, pretend = 0, frame = 0
 154              		@ frame_needed = 0, uses_anonymous_args = 0
 155 0000 08B5     		push	{r3, lr}
 156 0002 FFF7FEFF 		bl	tsk_flip
 157              		.size	_ZN8ThisTask4flipEPFvvE, .-_ZN8ThisTask4flipEPFvvE
 158              		.section	.text._ZN8ThisTask4stopEv,"ax",%progbits
 159              		.align	1
 160              		.global	_ZN8ThisTask4stopEv
 161              		.syntax unified
 162              		.thumb
 163              		.thumb_func
 164              		.fpu fpv4-sp-d16
 165              		.type	_ZN8ThisTask4stopEv, %function
 166              	_ZN8ThisTask4stopEv:
 167              		@ Volatile: function does not return.
 168              		@ args = 0, pretend = 0, frame = 0
 169              		@ frame_needed = 0, uses_anonymous_args = 0
 170 0000 08B5     		push	{r3, lr}
 171 0002 FFF7FEFF 		bl	tsk_stop
ARM GAS  C:\Users\SZYMAN~1.RAJ\AppData\Local\Temp\ccpuCrta.s 			page 4


 172              		.size	_ZN8ThisTask4stopEv, .-_ZN8ThisTask4stopEv
 173              		.section	.text._ZN8ThisTask4prioEj,"ax",%progbits
 174              		.align	1
 175              		.global	_ZN8ThisTask4prioEj
 176              		.syntax unified
 177              		.thumb
 178              		.thumb_func
 179              		.fpu fpv4-sp-d16
 180              		.type	_ZN8ThisTask4prioEj, %function
 181              	_ZN8ThisTask4prioEj:
 182              		@ args = 0, pretend = 0, frame = 0
 183              		@ frame_needed = 0, uses_anonymous_args = 0
 184              		@ link register save eliminated.
 185 0000 FFF7FEBF 		b	tsk_prio
 186              		.size	_ZN8ThisTask4prioEj, .-_ZN8ThisTask4prioEj
 187              		.section	.text._ZN8ThisTask4prioEv,"ax",%progbits
 188              		.align	1
 189              		.global	_ZN8ThisTask4prioEv
 190              		.syntax unified
 191              		.thumb
 192              		.thumb_func
 193              		.fpu fpv4-sp-d16
 194              		.type	_ZN8ThisTask4prioEv, %function
 195              	_ZN8ThisTask4prioEv:
 196              		@ args = 0, pretend = 0, frame = 0
 197              		@ frame_needed = 0, uses_anonymous_args = 0
 198              		@ link register save eliminated.
 199 0000 014B     		ldr	r3, .L15
 200 0002 1B68     		ldr	r3, [r3]
 201 0004 D86A     		ldr	r0, [r3, #44]
 202 0006 7047     		bx	lr
 203              	.L16:
 204              		.align	2
 205              	.L15:
 206 0008 00000000 		.word	System
 207              		.size	_ZN8ThisTask4prioEv, .-_ZN8ThisTask4prioEv
 208              		.section	.text._ZN8ThisTask4killEv,"ax",%progbits
 209              		.align	1
 210              		.global	_ZN8ThisTask4killEv
 211              		.syntax unified
 212              		.thumb
 213              		.thumb_func
 214              		.fpu fpv4-sp-d16
 215              		.type	_ZN8ThisTask4killEv, %function
 216              	_ZN8ThisTask4killEv:
 217              		@ args = 0, pretend = 0, frame = 0
 218              		@ frame_needed = 0, uses_anonymous_args = 0
 219              		@ link register save eliminated.
 220 0000 014B     		ldr	r3, .L18
 221 0002 1868     		ldr	r0, [r3]
 222 0004 FFF7FEBF 		b	tsk_kill
 223              	.L19:
 224              		.align	2
 225              	.L18:
 226 0008 00000000 		.word	System
 227              		.size	_ZN8ThisTask4killEv, .-_ZN8ThisTask4killEv
 228              		.section	.text._ZN8ThisTask6detachEv,"ax",%progbits
ARM GAS  C:\Users\SZYMAN~1.RAJ\AppData\Local\Temp\ccpuCrta.s 			page 5


 229              		.align	1
 230              		.global	_ZN8ThisTask6detachEv
 231              		.syntax unified
 232              		.thumb
 233              		.thumb_func
 234              		.fpu fpv4-sp-d16
 235              		.type	_ZN8ThisTask6detachEv, %function
 236              	_ZN8ThisTask6detachEv:
 237              		@ args = 0, pretend = 0, frame = 0
 238              		@ frame_needed = 0, uses_anonymous_args = 0
 239              		@ link register save eliminated.
 240 0000 014B     		ldr	r3, .L21
 241 0002 1868     		ldr	r0, [r3]
 242 0004 FFF7FEBF 		b	tsk_detach
 243              	.L22:
 244              		.align	2
 245              	.L21:
 246 0008 00000000 		.word	System
 247              		.size	_ZN8ThisTask6detachEv, .-_ZN8ThisTask6detachEv
 248              		.section	.text._ZN8ThisTask9waitUntilEjj,"ax",%progbits
 249              		.align	1
 250              		.global	_ZN8ThisTask9waitUntilEjj
 251              		.syntax unified
 252              		.thumb
 253              		.thumb_func
 254              		.fpu fpv4-sp-d16
 255              		.type	_ZN8ThisTask9waitUntilEjj, %function
 256              	_ZN8ThisTask9waitUntilEjj:
 257              		@ args = 0, pretend = 0, frame = 0
 258              		@ frame_needed = 0, uses_anonymous_args = 0
 259              		@ link register save eliminated.
 260 0000 FFF7FEBF 		b	tsk_waitUntil
 261              		.size	_ZN8ThisTask9waitUntilEjj, .-_ZN8ThisTask9waitUntilEjj
 262              		.section	.text._ZN8ThisTask7waitForEjj,"ax",%progbits
 263              		.align	1
 264              		.global	_ZN8ThisTask7waitForEjj
 265              		.syntax unified
 266              		.thumb
 267              		.thumb_func
 268              		.fpu fpv4-sp-d16
 269              		.type	_ZN8ThisTask7waitForEjj, %function
 270              	_ZN8ThisTask7waitForEjj:
 271              		@ args = 0, pretend = 0, frame = 0
 272              		@ frame_needed = 0, uses_anonymous_args = 0
 273              		@ link register save eliminated.
 274 0000 FFF7FEBF 		b	tsk_waitFor
 275              		.size	_ZN8ThisTask7waitForEjj, .-_ZN8ThisTask7waitForEjj
 276              		.section	.text._ZN8ThisTask4waitEj,"ax",%progbits
 277              		.align	1
 278              		.global	_ZN8ThisTask4waitEj
 279              		.syntax unified
 280              		.thumb
 281              		.thumb_func
 282              		.fpu fpv4-sp-d16
 283              		.type	_ZN8ThisTask4waitEj, %function
 284              	_ZN8ThisTask4waitEj:
 285              		@ args = 0, pretend = 0, frame = 0
ARM GAS  C:\Users\SZYMAN~1.RAJ\AppData\Local\Temp\ccpuCrta.s 			page 6


 286              		@ frame_needed = 0, uses_anonymous_args = 0
 287              		@ link register save eliminated.
 288 0000 4FF0FF31 		mov	r1, #-1
 289 0004 FFF7FEBF 		b	tsk_waitFor
 290              		.size	_ZN8ThisTask4waitEj, .-_ZN8ThisTask4waitEj
 291              		.section	.text._ZN8ThisTask10sleepUntilEj,"ax",%progbits
 292              		.align	1
 293              		.global	_ZN8ThisTask10sleepUntilEj
 294              		.syntax unified
 295              		.thumb
 296              		.thumb_func
 297              		.fpu fpv4-sp-d16
 298              		.type	_ZN8ThisTask10sleepUntilEj, %function
 299              	_ZN8ThisTask10sleepUntilEj:
 300              		@ args = 0, pretend = 0, frame = 0
 301              		@ frame_needed = 0, uses_anonymous_args = 0
 302              		@ link register save eliminated.
 303 0000 0146     		mov	r1, r0
 304 0002 0148     		ldr	r0, .L27
 305 0004 FFF7FEBF 		b	tmr_waitUntil
 306              	.L28:
 307              		.align	2
 308              	.L27:
 309 0008 00000000 		.word	WAIT
 310              		.size	_ZN8ThisTask10sleepUntilEj, .-_ZN8ThisTask10sleepUntilEj
 311              		.section	.text._ZN8ThisTask8sleepForEj,"ax",%progbits
 312              		.align	1
 313              		.global	_ZN8ThisTask8sleepForEj
 314              		.syntax unified
 315              		.thumb
 316              		.thumb_func
 317              		.fpu fpv4-sp-d16
 318              		.type	_ZN8ThisTask8sleepForEj, %function
 319              	_ZN8ThisTask8sleepForEj:
 320              		@ args = 0, pretend = 0, frame = 0
 321              		@ frame_needed = 0, uses_anonymous_args = 0
 322              		@ link register save eliminated.
 323 0000 0146     		mov	r1, r0
 324 0002 0148     		ldr	r0, .L30
 325 0004 FFF7FEBF 		b	tmr_waitFor
 326              	.L31:
 327              		.align	2
 328              	.L30:
 329 0008 00000000 		.word	WAIT
 330              		.size	_ZN8ThisTask8sleepForEj, .-_ZN8ThisTask8sleepForEj
 331              		.section	.text._ZN8ThisTask5sleepEv,"ax",%progbits
 332              		.align	1
 333              		.global	_ZN8ThisTask5sleepEv
 334              		.syntax unified
 335              		.thumb
 336              		.thumb_func
 337              		.fpu fpv4-sp-d16
 338              		.type	_ZN8ThisTask5sleepEv, %function
 339              	_ZN8ThisTask5sleepEv:
 340              		@ args = 0, pretend = 0, frame = 0
 341              		@ frame_needed = 0, uses_anonymous_args = 0
 342              		@ link register save eliminated.
ARM GAS  C:\Users\SZYMAN~1.RAJ\AppData\Local\Temp\ccpuCrta.s 			page 7


 343 0000 4FF0FF31 		mov	r1, #-1
 344 0004 0148     		ldr	r0, .L33
 345 0006 FFF7FEBF 		b	tmr_waitFor
 346              	.L34:
 347 000a 00BF     		.align	2
 348              	.L33:
 349 000c 00000000 		.word	WAIT
 350              		.size	_ZN8ThisTask5sleepEv, .-_ZN8ThisTask5sleepEv
 351              		.section	.text._ZN8ThisTask5delayEj,"ax",%progbits
 352              		.align	1
 353              		.global	_ZN8ThisTask5delayEj
 354              		.syntax unified
 355              		.thumb
 356              		.thumb_func
 357              		.fpu fpv4-sp-d16
 358              		.type	_ZN8ThisTask5delayEj, %function
 359              	_ZN8ThisTask5delayEj:
 360              		@ args = 0, pretend = 0, frame = 0
 361              		@ frame_needed = 0, uses_anonymous_args = 0
 362              		@ link register save eliminated.
 363 0000 0146     		mov	r1, r0
 364 0002 0148     		ldr	r0, .L36
 365 0004 FFF7FEBF 		b	tmr_waitFor
 366              	.L37:
 367              		.align	2
 368              	.L36:
 369 0008 00000000 		.word	WAIT
 370              		.size	_ZN8ThisTask5delayEj, .-_ZN8ThisTask5delayEj
 371              		.section	.text._ZN8ThisTask7suspendEv,"ax",%progbits
 372              		.align	1
 373              		.global	_ZN8ThisTask7suspendEv
 374              		.syntax unified
 375              		.thumb
 376              		.thumb_func
 377              		.fpu fpv4-sp-d16
 378              		.type	_ZN8ThisTask7suspendEv, %function
 379              	_ZN8ThisTask7suspendEv:
 380              		@ args = 0, pretend = 0, frame = 0
 381              		@ frame_needed = 0, uses_anonymous_args = 0
 382              		@ link register save eliminated.
 383 0000 4FF0FF31 		mov	r1, #-1
 384 0004 0148     		ldr	r0, .L39
 385 0006 FFF7FEBF 		b	tmr_waitFor
 386              	.L40:
 387 000a 00BF     		.align	2
 388              	.L39:
 389 000c 00000000 		.word	WAIT
 390              		.size	_ZN8ThisTask7suspendEv, .-_ZN8ThisTask7suspendEv
 391              		.section	.text._Z4procRjj,"ax",%progbits
 392              		.align	1
 393              		.global	_Z4procRjj
 394              		.syntax unified
 395              		.thumb
 396              		.thumb_func
 397              		.fpu fpv4-sp-d16
 398              		.type	_Z4procRjj, %function
 399              	_Z4procRjj:
ARM GAS  C:\Users\SZYMAN~1.RAJ\AppData\Local\Temp\ccpuCrta.s 			page 8


 400              		@ Volatile: function does not return.
 401              		@ args = 0, pretend = 0, frame = 0
 402              		@ frame_needed = 0, uses_anonymous_args = 0
 403 0000 08B5     		push	{r3, lr}
 404 0002 0546     		mov	r5, r0
 405 0004 0C46     		mov	r4, r1
 406              	.L42:
 407 0006 04F5F424 		add	r4, r4, #499712
 408 000a 04F59074 		add	r4, r4, #288
 409 000e 2046     		mov	r0, r4
 410 0010 FFF7FEFF 		bl	_ZN8ThisTask10sleepUntilEj
 411 0014 2B68     		ldr	r3, [r5]
 412 0016 0133     		adds	r3, r3, #1
 413 0018 2B60     		str	r3, [r5]
 414 001a F4E7     		b	.L42
 415              		.size	_Z4procRjj, .-_Z4procRjj
 416              		.section	.text._ZNUlvE_4_FUNEv,"ax",%progbits
 417              		.align	1
 418              		.syntax unified
 419              		.thumb
 420              		.thumb_func
 421              		.fpu fpv4-sp-d16
 422              		.type	_ZNUlvE_4_FUNEv, %function
 423              	_ZNUlvE_4_FUNEv:
 424              		@ Volatile: function does not return.
 425              		@ args = 0, pretend = 0, frame = 0
 426              		@ frame_needed = 0, uses_anonymous_args = 0
 427 0000 08B5     		push	{r3, lr}
 428 0002 0021     		movs	r1, #0
 429 0004 0148     		ldr	r0, .L44
 430 0006 FFF7FEFF 		bl	_Z4procRjj
 431              	.L45:
 432 000a 00BF     		.align	2
 433              	.L44:
 434 000c B0824142 		.word	1111589552
 435              		.size	_ZNUlvE_4_FUNEv, .-_ZNUlvE_4_FUNEv
 436              		.section	.text._ZNUlvE0_4_FUNEv,"ax",%progbits
 437              		.align	1
 438              		.syntax unified
 439              		.thumb
 440              		.thumb_func
 441              		.fpu fpv4-sp-d16
 442              		.type	_ZNUlvE0_4_FUNEv, %function
 443              	_ZNUlvE0_4_FUNEv:
 444              		@ Volatile: function does not return.
 445              		@ args = 0, pretend = 0, frame = 0
 446              		@ frame_needed = 0, uses_anonymous_args = 0
 447 0000 08B5     		push	{r3, lr}
 448 0002 0249     		ldr	r1, .L47
 449 0004 0248     		ldr	r0, .L47+4
 450 0006 FFF7FEFF 		bl	_Z4procRjj
 451              	.L48:
 452 000a 00BF     		.align	2
 453              	.L47:
 454 000c 48E80100 		.word	125000
 455 0010 B4824142 		.word	1111589556
 456              		.size	_ZNUlvE0_4_FUNEv, .-_ZNUlvE0_4_FUNEv
ARM GAS  C:\Users\SZYMAN~1.RAJ\AppData\Local\Temp\ccpuCrta.s 			page 9


 457              		.section	.text._ZNUlvE1_4_FUNEv,"ax",%progbits
 458              		.align	1
 459              		.syntax unified
 460              		.thumb
 461              		.thumb_func
 462              		.fpu fpv4-sp-d16
 463              		.type	_ZNUlvE1_4_FUNEv, %function
 464              	_ZNUlvE1_4_FUNEv:
 465              		@ Volatile: function does not return.
 466              		@ args = 0, pretend = 0, frame = 0
 467              		@ frame_needed = 0, uses_anonymous_args = 0
 468 0000 08B5     		push	{r3, lr}
 469 0002 0249     		ldr	r1, .L50
 470 0004 0248     		ldr	r0, .L50+4
 471 0006 FFF7FEFF 		bl	_Z4procRjj
 472              	.L51:
 473 000a 00BF     		.align	2
 474              	.L50:
 475 000c 90D00300 		.word	250000
 476 0010 B8824142 		.word	1111589560
 477              		.size	_ZNUlvE1_4_FUNEv, .-_ZNUlvE1_4_FUNEv
 478              		.section	.text._ZNUlvE2_4_FUNEv,"ax",%progbits
 479              		.align	1
 480              		.syntax unified
 481              		.thumb
 482              		.thumb_func
 483              		.fpu fpv4-sp-d16
 484              		.type	_ZNUlvE2_4_FUNEv, %function
 485              	_ZNUlvE2_4_FUNEv:
 486              		@ Volatile: function does not return.
 487              		@ args = 0, pretend = 0, frame = 0
 488              		@ frame_needed = 0, uses_anonymous_args = 0
 489 0000 08B5     		push	{r3, lr}
 490 0002 0249     		ldr	r1, .L53
 491 0004 0248     		ldr	r0, .L53+4
 492 0006 FFF7FEFF 		bl	_Z4procRjj
 493              	.L54:
 494 000a 00BF     		.align	2
 495              	.L53:
 496 000c D8B80500 		.word	375000
 497 0010 BC824142 		.word	1111589564
 498              		.size	_ZNUlvE2_4_FUNEv, .-_ZNUlvE2_4_FUNEv
 499              		.section	.text._ZNUlvE3_4_FUNEv,"ax",%progbits
 500              		.align	1
 501              		.syntax unified
 502              		.thumb
 503              		.thumb_func
 504              		.fpu fpv4-sp-d16
 505              		.type	_ZNUlvE3_4_FUNEv, %function
 506              	_ZNUlvE3_4_FUNEv:
 507              		@ Volatile: function does not return.
 508              		@ args = 0, pretend = 0, frame = 0
 509              		@ frame_needed = 0, uses_anonymous_args = 0
 510 0000 08B5     		push	{r3, lr}
 511 0002 0249     		ldr	r1, .L56
 512 0004 0248     		ldr	r0, .L56+4
 513 0006 FFF7FEFF 		bl	_Z4procRjj
ARM GAS  C:\Users\SZYMAN~1.RAJ\AppData\Local\Temp\ccpuCrta.s 			page 10


 514              	.L57:
 515 000a 00BF     		.align	2
 516              	.L56:
 517 000c 20A10700 		.word	500000
 518 0010 A4024042 		.word	1111491236
 519              		.size	_ZNUlvE3_4_FUNEv, .-_ZNUlvE3_4_FUNEv
 520              		.section	.text.startup.main,"ax",%progbits
 521              		.align	1
 522              		.global	main
 523              		.syntax unified
 524              		.thumb
 525              		.thumb_func
 526              		.fpu fpv4-sp-d16
 527              		.type	main, %function
 528              	main:
 529              		@ Volatile: function does not return.
 530              		@ args = 0, pretend = 0, frame = 0
 531              		@ frame_needed = 0, uses_anonymous_args = 0
 532 0000 08B5     		push	{r3, lr}
 533 0002 FFF7FEFF 		bl	tsk_stop
 534              		.size	main, .-main
 535              		.section	.text._ZN10startTaskTILj512EEC2EjPFvvE,"axG",%progbits,_ZN10startTaskTILj512EEC5EjPFvvE,c
 536              		.align	1
 537              		.weak	_ZN10startTaskTILj512EEC2EjPFvvE
 538              		.syntax unified
 539              		.thumb
 540              		.thumb_func
 541              		.fpu fpv4-sp-d16
 542              		.type	_ZN10startTaskTILj512EEC2EjPFvvE, %function
 543              	_ZN10startTaskTILj512EEC2EjPFvvE:
 544              		@ args = 0, pretend = 0, frame = 0
 545              		@ frame_needed = 0, uses_anonymous_args = 0
 546 0000 10B5     		push	{r4, lr}
 547 0002 0023     		movs	r3, #0
 548 0004 0261     		str	r2, [r0, #16]
 549 0006 00F51272 		add	r2, r0, #584
 550 000a 0446     		mov	r4, r0
 551 000c 0360     		str	r3, [r0]
 552 000e 4360     		str	r3, [r0, #4]
 553 0010 8360     		str	r3, [r0, #8]
 554 0012 C360     		str	r3, [r0, #12]
 555 0014 4361     		str	r3, [r0, #20]
 556 0016 8361     		str	r3, [r0, #24]
 557 0018 C361     		str	r3, [r0, #28]
 558 001a 0362     		str	r3, [r0, #32]
 559 001c 4262     		str	r2, [r0, #36]
 560 001e 8162     		str	r1, [r0, #40]
 561 0020 C162     		str	r1, [r0, #44]
 562 0022 0363     		str	r3, [r0, #48]
 563 0024 4363     		str	r3, [r0, #52]
 564 0026 8363     		str	r3, [r0, #56]
 565 0028 C363     		str	r3, [r0, #60]
 566 002a 0364     		str	r3, [r0, #64]
 567 002c FFF7FEFF 		bl	tsk_start
 568 0030 2046     		mov	r0, r4
 569 0032 10BD     		pop	{r4, pc}
 570              		.size	_ZN10startTaskTILj512EEC2EjPFvvE, .-_ZN10startTaskTILj512EEC2EjPFvvE
ARM GAS  C:\Users\SZYMAN~1.RAJ\AppData\Local\Temp\ccpuCrta.s 			page 11


 571              		.weak	_ZN10startTaskTILj512EEC1EjPFvvE
 572              		.thumb_set _ZN10startTaskTILj512EEC1EjPFvvE,_ZN10startTaskTILj512EEC2EjPFvvE
 573              		.section	.text.startup._GLOBAL__sub_I__ZN9ThisTimer7flipISREPFvvE,"ax",%progbits
 574              		.align	1
 575              		.syntax unified
 576              		.thumb
 577              		.thumb_func
 578              		.fpu fpv4-sp-d16
 579              		.type	_GLOBAL__sub_I__ZN9ThisTimer7flipISREPFvvE, %function
 580              	_GLOBAL__sub_I__ZN9ThisTimer7flipISREPFvvE:
 581              		@ args = 0, pretend = 0, frame = 0
 582              		@ frame_needed = 0, uses_anonymous_args = 0
 583 0000 274B     		ldr	r3, .L61
 584 0002 0122     		movs	r2, #1
 585 0004 70B5     		push	{r4, r5, r6, lr}
 586 0006 1A60     		str	r2, [r3]
 587              		.syntax unified
 588              	@ 785 "CMSIS/include/cmsis_gcc.h" 1
 589 0008 BFF34F8F 		dsb 0xF
 590              	@ 0 "" 2
 591              		.thumb
 592              		.syntax unified
 593 000c 2549     		ldr	r1, .L61+4
 594 000e 0B68     		ldr	r3, [r1]
 595 0010 43F0AA43 		orr	r3, r3, #1426063360
 596 0014 0B60     		str	r3, [r1]
 597 0016 244B     		ldr	r3, .L61+8
 598 0018 1A60     		str	r2, [r3]
 599              		.syntax unified
 600              	@ 785 "CMSIS/include/cmsis_gcc.h" 1
 601 001a BFF34F8F 		dsb 0xF
 602              	@ 0 "" 2
 603              		.thumb
 604              		.syntax unified
 605 001e 234A     		ldr	r2, .L61+12
 606 0020 234E     		ldr	r6, .L61+16
 607 0022 1368     		ldr	r3, [r2]
 608 0024 234D     		ldr	r5, .L61+20
 609 0026 244C     		ldr	r4, .L61+24
 610 0028 43F48023 		orr	r3, r3, #262144
 611 002c 1360     		str	r3, [r2]
 612 002e 0021     		movs	r1, #0
 613 0030 224A     		ldr	r2, .L61+28
 614 0032 3046     		mov	r0, r6
 615 0034 FFF7FEFF 		bl	_ZN10startTaskTILj512EEC2EjPFvvE
 616 0038 3046     		mov	r0, r6
 617 003a 214E     		ldr	r6, .L61+32
 618 003c 2A46     		mov	r2, r5
 619 003e 2146     		mov	r1, r4
 620 0040 FFF7FEFF 		bl	__aeabi_atexit
 621 0044 1F4A     		ldr	r2, .L61+36
 622 0046 0021     		movs	r1, #0
 623 0048 3046     		mov	r0, r6
 624 004a FFF7FEFF 		bl	_ZN10startTaskTILj512EEC2EjPFvvE
 625 004e 3046     		mov	r0, r6
 626 0050 1D4E     		ldr	r6, .L61+40
 627 0052 2A46     		mov	r2, r5
ARM GAS  C:\Users\SZYMAN~1.RAJ\AppData\Local\Temp\ccpuCrta.s 			page 12


 628 0054 2146     		mov	r1, r4
 629 0056 FFF7FEFF 		bl	__aeabi_atexit
 630 005a 1C4A     		ldr	r2, .L61+44
 631 005c 0021     		movs	r1, #0
 632 005e 3046     		mov	r0, r6
 633 0060 FFF7FEFF 		bl	_ZN10startTaskTILj512EEC2EjPFvvE
 634 0064 3046     		mov	r0, r6
 635 0066 1A4E     		ldr	r6, .L61+48
 636 0068 2A46     		mov	r2, r5
 637 006a 2146     		mov	r1, r4
 638 006c FFF7FEFF 		bl	__aeabi_atexit
 639 0070 184A     		ldr	r2, .L61+52
 640 0072 0021     		movs	r1, #0
 641 0074 3046     		mov	r0, r6
 642 0076 FFF7FEFF 		bl	_ZN10startTaskTILj512EEC2EjPFvvE
 643 007a 3046     		mov	r0, r6
 644 007c 164E     		ldr	r6, .L61+56
 645 007e 2A46     		mov	r2, r5
 646 0080 2146     		mov	r1, r4
 647 0082 FFF7FEFF 		bl	__aeabi_atexit
 648 0086 154A     		ldr	r2, .L61+60
 649 0088 0021     		movs	r1, #0
 650 008a 3046     		mov	r0, r6
 651 008c FFF7FEFF 		bl	_ZN10startTaskTILj512EEC2EjPFvvE
 652 0090 2A46     		mov	r2, r5
 653 0092 2146     		mov	r1, r4
 654 0094 3046     		mov	r0, r6
 655 0096 BDE87040 		pop	{r4, r5, r6, lr}
 656 009a FFF7FEBF 		b	__aeabi_atexit
 657              	.L62:
 658 009e 00BF     		.align	2
 659              	.L61:
 660 00a0 0C064742 		.word	1111950860
 661 00a4 000C0240 		.word	1073875968
 662 00a8 00064742 		.word	1111950848
 663 00ac 00000240 		.word	1073872896
 664 00b0 00000000 		.word	.LANCHOR0
 665 00b4 00000000 		.word	__dso_handle
 666 00b8 00000000 		.word	_ZN9startTaskD1Ev
 667 00bc 00000000 		.word	_ZNUlvE_4_FUNEv
 668 00c0 00000000 		.word	.LANCHOR1
 669 00c4 00000000 		.word	_ZNUlvE0_4_FUNEv
 670 00c8 00000000 		.word	.LANCHOR2
 671 00cc 00000000 		.word	_ZNUlvE1_4_FUNEv
 672 00d0 00000000 		.word	.LANCHOR3
 673 00d4 00000000 		.word	_ZNUlvE2_4_FUNEv
 674 00d8 00000000 		.word	.LANCHOR4
 675 00dc 00000000 		.word	_ZNUlvE3_4_FUNEv
 676              		.size	_GLOBAL__sub_I__ZN9ThisTimer7flipISREPFvvE, .-_GLOBAL__sub_I__ZN9ThisTimer7flipISREPFvvE
 677              		.section	.init_array,"aw",%init_array
 678              		.align	2
 679 0000 00000000 		.word	_GLOBAL__sub_I__ZN9ThisTimer7flipISREPFvvE(target1)
 680              		.global	t5
 681              		.global	t4
 682              		.global	t3
 683              		.global	t2
 684              		.global	t1
ARM GAS  C:\Users\SZYMAN~1.RAJ\AppData\Local\Temp\ccpuCrta.s 			page 13


 685              		.global	grn
 686              		.global	led
 687              		.section	.bss.grn,"aw",%nobits
 688              		.type	grn, %object
 689              		.size	grn, 1
 690              	grn:
 691 0000 00       		.space	1
 692              		.section	.bss.led,"aw",%nobits
 693              		.type	led, %object
 694              		.size	led, 1
 695              	led:
 696 0000 00       		.space	1
 697              		.section	.bss.t1,"aw",%nobits
 698              		.align	3
 699              		.set	.LANCHOR0,. + 0
 700              		.type	t1, %object
 701              		.size	t1, 584
 702              	t1:
 703 0000 00000000 		.space	584
 703      00000000 
 703      00000000 
 703      00000000 
 703      00000000 
 704              		.section	.bss.t2,"aw",%nobits
 705              		.align	3
 706              		.set	.LANCHOR1,. + 0
 707              		.type	t2, %object
 708              		.size	t2, 584
 709              	t2:
 710 0000 00000000 		.space	584
 710      00000000 
 710      00000000 
 710      00000000 
 710      00000000 
 711              		.section	.bss.t3,"aw",%nobits
 712              		.align	3
 713              		.set	.LANCHOR2,. + 0
 714              		.type	t3, %object
 715              		.size	t3, 584
 716              	t3:
 717 0000 00000000 		.space	584
 717      00000000 
 717      00000000 
 717      00000000 
 717      00000000 
 718              		.section	.bss.t4,"aw",%nobits
 719              		.align	3
 720              		.set	.LANCHOR3,. + 0
 721              		.type	t4, %object
 722              		.size	t4, 584
 723              	t4:
 724 0000 00000000 		.space	584
 724      00000000 
 724      00000000 
 724      00000000 
 724      00000000 
 725              		.section	.bss.t5,"aw",%nobits
ARM GAS  C:\Users\SZYMAN~1.RAJ\AppData\Local\Temp\ccpuCrta.s 			page 14


 726              		.align	3
 727              		.set	.LANCHOR4,. + 0
 728              		.type	t5, %object
 729              		.size	t5, 584
 730              	t5:
 731 0000 00000000 		.space	584
 731      00000000 
 731      00000000 
 731      00000000 
 731      00000000 
 732              		.hidden	__dso_handle
 733              		.ident	"GCC: (GNU Tools for ARM Embedded Processors) 6.2.1 20161205 (release) [ARM/embedded-6-bran
ARM GAS  C:\Users\SZYMAN~1.RAJ\AppData\Local\Temp\ccpuCrta.s 			page 15

